
ctarget:     file format elf64-x86-64


Disassembly of section .init:

0000000000400c48 <_init>:
  400c48:	48 83 ec 08          	sub    $0x8,%rsp
  400c4c:	48 8b 05 a5 33 20 00 	mov    0x2033a5(%rip),%rax        # 603ff8 <_DYNAMIC+0x1d0>
  400c53:	48 85 c0             	test   %rax,%rax
  400c56:	74 05                	je     400c5d <_init+0x15>
  400c58:	e8 43 02 00 00       	callq  400ea0 <socket@plt+0x10>
  400c5d:	48 83 c4 08          	add    $0x8,%rsp
  400c61:	c3                   	retq   

Disassembly of section .plt:

0000000000400c70 <strcasecmp@plt-0x10>:
  400c70:	ff 35 92 33 20 00    	pushq  0x203392(%rip)        # 604008 <_GLOBAL_OFFSET_TABLE_+0x8>
  400c76:	ff 25 94 33 20 00    	jmpq   *0x203394(%rip)        # 604010 <_GLOBAL_OFFSET_TABLE_+0x10>
  400c7c:	0f 1f 40 00          	nopl   0x0(%rax)

0000000000400c80 <strcasecmp@plt>:
  400c80:	ff 25 92 33 20 00    	jmpq   *0x203392(%rip)        # 604018 <_GLOBAL_OFFSET_TABLE_+0x18>
  400c86:	68 00 00 00 00       	pushq  $0x0
  400c8b:	e9 e0 ff ff ff       	jmpq   400c70 <_init+0x28>

0000000000400c90 <__errno_location@plt>:
  400c90:	ff 25 8a 33 20 00    	jmpq   *0x20338a(%rip)        # 604020 <_GLOBAL_OFFSET_TABLE_+0x20>
  400c96:	68 01 00 00 00       	pushq  $0x1
  400c9b:	e9 d0 ff ff ff       	jmpq   400c70 <_init+0x28>

0000000000400ca0 <srandom@plt>:
  400ca0:	ff 25 82 33 20 00    	jmpq   *0x203382(%rip)        # 604028 <_GLOBAL_OFFSET_TABLE_+0x28>
  400ca6:	68 02 00 00 00       	pushq  $0x2
  400cab:	e9 c0 ff ff ff       	jmpq   400c70 <_init+0x28>

0000000000400cb0 <strncmp@plt>:
  400cb0:	ff 25 7a 33 20 00    	jmpq   *0x20337a(%rip)        # 604030 <_GLOBAL_OFFSET_TABLE_+0x30>
  400cb6:	68 03 00 00 00       	pushq  $0x3
  400cbb:	e9 b0 ff ff ff       	jmpq   400c70 <_init+0x28>

0000000000400cc0 <strcpy@plt>:
  400cc0:	ff 25 72 33 20 00    	jmpq   *0x203372(%rip)        # 604038 <_GLOBAL_OFFSET_TABLE_+0x38>
  400cc6:	68 04 00 00 00       	pushq  $0x4
  400ccb:	e9 a0 ff ff ff       	jmpq   400c70 <_init+0x28>

0000000000400cd0 <puts@plt>:
  400cd0:	ff 25 6a 33 20 00    	jmpq   *0x20336a(%rip)        # 604040 <_GLOBAL_OFFSET_TABLE_+0x40>
  400cd6:	68 05 00 00 00       	pushq  $0x5
  400cdb:	e9 90 ff ff ff       	jmpq   400c70 <_init+0x28>

0000000000400ce0 <write@plt>:
  400ce0:	ff 25 62 33 20 00    	jmpq   *0x203362(%rip)        # 604048 <_GLOBAL_OFFSET_TABLE_+0x48>
  400ce6:	68 06 00 00 00       	pushq  $0x6
  400ceb:	e9 80 ff ff ff       	jmpq   400c70 <_init+0x28>

0000000000400cf0 <__stack_chk_fail@plt>:
  400cf0:	ff 25 5a 33 20 00    	jmpq   *0x20335a(%rip)        # 604050 <_GLOBAL_OFFSET_TABLE_+0x50>
  400cf6:	68 07 00 00 00       	pushq  $0x7
  400cfb:	e9 70 ff ff ff       	jmpq   400c70 <_init+0x28>

0000000000400d00 <mmap@plt>:
  400d00:	ff 25 52 33 20 00    	jmpq   *0x203352(%rip)        # 604058 <_GLOBAL_OFFSET_TABLE_+0x58>
  400d06:	68 08 00 00 00       	pushq  $0x8
  400d0b:	e9 60 ff ff ff       	jmpq   400c70 <_init+0x28>

0000000000400d10 <memset@plt>:
  400d10:	ff 25 4a 33 20 00    	jmpq   *0x20334a(%rip)        # 604060 <_GLOBAL_OFFSET_TABLE_+0x60>
  400d16:	68 09 00 00 00       	pushq  $0x9
  400d1b:	e9 50 ff ff ff       	jmpq   400c70 <_init+0x28>

0000000000400d20 <alarm@plt>:
  400d20:	ff 25 42 33 20 00    	jmpq   *0x203342(%rip)        # 604068 <_GLOBAL_OFFSET_TABLE_+0x68>
  400d26:	68 0a 00 00 00       	pushq  $0xa
  400d2b:	e9 40 ff ff ff       	jmpq   400c70 <_init+0x28>

0000000000400d30 <close@plt>:
  400d30:	ff 25 3a 33 20 00    	jmpq   *0x20333a(%rip)        # 604070 <_GLOBAL_OFFSET_TABLE_+0x70>
  400d36:	68 0b 00 00 00       	pushq  $0xb
  400d3b:	e9 30 ff ff ff       	jmpq   400c70 <_init+0x28>

0000000000400d40 <read@plt>:
  400d40:	ff 25 32 33 20 00    	jmpq   *0x203332(%rip)        # 604078 <_GLOBAL_OFFSET_TABLE_+0x78>
  400d46:	68 0c 00 00 00       	pushq  $0xc
  400d4b:	e9 20 ff ff ff       	jmpq   400c70 <_init+0x28>

0000000000400d50 <__libc_start_main@plt>:
  400d50:	ff 25 2a 33 20 00    	jmpq   *0x20332a(%rip)        # 604080 <_GLOBAL_OFFSET_TABLE_+0x80>
  400d56:	68 0d 00 00 00       	pushq  $0xd
  400d5b:	e9 10 ff ff ff       	jmpq   400c70 <_init+0x28>

0000000000400d60 <signal@plt>:
  400d60:	ff 25 22 33 20 00    	jmpq   *0x203322(%rip)        # 604088 <_GLOBAL_OFFSET_TABLE_+0x88>
  400d66:	68 0e 00 00 00       	pushq  $0xe
  400d6b:	e9 00 ff ff ff       	jmpq   400c70 <_init+0x28>

0000000000400d70 <gethostbyname@plt>:
  400d70:	ff 25 1a 33 20 00    	jmpq   *0x20331a(%rip)        # 604090 <_GLOBAL_OFFSET_TABLE_+0x90>
  400d76:	68 0f 00 00 00       	pushq  $0xf
  400d7b:	e9 f0 fe ff ff       	jmpq   400c70 <_init+0x28>

0000000000400d80 <__memmove_chk@plt>:
  400d80:	ff 25 12 33 20 00    	jmpq   *0x203312(%rip)        # 604098 <_GLOBAL_OFFSET_TABLE_+0x98>
  400d86:	68 10 00 00 00       	pushq  $0x10
  400d8b:	e9 e0 fe ff ff       	jmpq   400c70 <_init+0x28>

0000000000400d90 <strtol@plt>:
  400d90:	ff 25 0a 33 20 00    	jmpq   *0x20330a(%rip)        # 6040a0 <_GLOBAL_OFFSET_TABLE_+0xa0>
  400d96:	68 11 00 00 00       	pushq  $0x11
  400d9b:	e9 d0 fe ff ff       	jmpq   400c70 <_init+0x28>

0000000000400da0 <memcpy@plt>:
  400da0:	ff 25 02 33 20 00    	jmpq   *0x203302(%rip)        # 6040a8 <_GLOBAL_OFFSET_TABLE_+0xa8>
  400da6:	68 12 00 00 00       	pushq  $0x12
  400dab:	e9 c0 fe ff ff       	jmpq   400c70 <_init+0x28>

0000000000400db0 <time@plt>:
  400db0:	ff 25 fa 32 20 00    	jmpq   *0x2032fa(%rip)        # 6040b0 <_GLOBAL_OFFSET_TABLE_+0xb0>
  400db6:	68 13 00 00 00       	pushq  $0x13
  400dbb:	e9 b0 fe ff ff       	jmpq   400c70 <_init+0x28>

0000000000400dc0 <random@plt>:
  400dc0:	ff 25 f2 32 20 00    	jmpq   *0x2032f2(%rip)        # 6040b8 <_GLOBAL_OFFSET_TABLE_+0xb8>
  400dc6:	68 14 00 00 00       	pushq  $0x14
  400dcb:	e9 a0 fe ff ff       	jmpq   400c70 <_init+0x28>

0000000000400dd0 <_IO_getc@plt>:
  400dd0:	ff 25 ea 32 20 00    	jmpq   *0x2032ea(%rip)        # 6040c0 <_GLOBAL_OFFSET_TABLE_+0xc0>
  400dd6:	68 15 00 00 00       	pushq  $0x15
  400ddb:	e9 90 fe ff ff       	jmpq   400c70 <_init+0x28>

0000000000400de0 <__isoc99_sscanf@plt>:
  400de0:	ff 25 e2 32 20 00    	jmpq   *0x2032e2(%rip)        # 6040c8 <_GLOBAL_OFFSET_TABLE_+0xc8>
  400de6:	68 16 00 00 00       	pushq  $0x16
  400deb:	e9 80 fe ff ff       	jmpq   400c70 <_init+0x28>

0000000000400df0 <munmap@plt>:
  400df0:	ff 25 da 32 20 00    	jmpq   *0x2032da(%rip)        # 6040d0 <_GLOBAL_OFFSET_TABLE_+0xd0>
  400df6:	68 17 00 00 00       	pushq  $0x17
  400dfb:	e9 70 fe ff ff       	jmpq   400c70 <_init+0x28>

0000000000400e00 <__printf_chk@plt>:
  400e00:	ff 25 d2 32 20 00    	jmpq   *0x2032d2(%rip)        # 6040d8 <_GLOBAL_OFFSET_TABLE_+0xd8>
  400e06:	68 18 00 00 00       	pushq  $0x18
  400e0b:	e9 60 fe ff ff       	jmpq   400c70 <_init+0x28>

0000000000400e10 <fopen@plt>:
  400e10:	ff 25 ca 32 20 00    	jmpq   *0x2032ca(%rip)        # 6040e0 <_GLOBAL_OFFSET_TABLE_+0xe0>
  400e16:	68 19 00 00 00       	pushq  $0x19
  400e1b:	e9 50 fe ff ff       	jmpq   400c70 <_init+0x28>

0000000000400e20 <getopt@plt>:
  400e20:	ff 25 c2 32 20 00    	jmpq   *0x2032c2(%rip)        # 6040e8 <_GLOBAL_OFFSET_TABLE_+0xe8>
  400e26:	68 1a 00 00 00       	pushq  $0x1a
  400e2b:	e9 40 fe ff ff       	jmpq   400c70 <_init+0x28>

0000000000400e30 <strtoul@plt>:
  400e30:	ff 25 ba 32 20 00    	jmpq   *0x2032ba(%rip)        # 6040f0 <_GLOBAL_OFFSET_TABLE_+0xf0>
  400e36:	68 1b 00 00 00       	pushq  $0x1b
  400e3b:	e9 30 fe ff ff       	jmpq   400c70 <_init+0x28>

0000000000400e40 <gethostname@plt>:
  400e40:	ff 25 b2 32 20 00    	jmpq   *0x2032b2(%rip)        # 6040f8 <_GLOBAL_OFFSET_TABLE_+0xf8>
  400e46:	68 1c 00 00 00       	pushq  $0x1c
  400e4b:	e9 20 fe ff ff       	jmpq   400c70 <_init+0x28>

0000000000400e50 <exit@plt>:
  400e50:	ff 25 aa 32 20 00    	jmpq   *0x2032aa(%rip)        # 604100 <_GLOBAL_OFFSET_TABLE_+0x100>
  400e56:	68 1d 00 00 00       	pushq  $0x1d
  400e5b:	e9 10 fe ff ff       	jmpq   400c70 <_init+0x28>

0000000000400e60 <connect@plt>:
  400e60:	ff 25 a2 32 20 00    	jmpq   *0x2032a2(%rip)        # 604108 <_GLOBAL_OFFSET_TABLE_+0x108>
  400e66:	68 1e 00 00 00       	pushq  $0x1e
  400e6b:	e9 00 fe ff ff       	jmpq   400c70 <_init+0x28>

0000000000400e70 <__fprintf_chk@plt>:
  400e70:	ff 25 9a 32 20 00    	jmpq   *0x20329a(%rip)        # 604110 <_GLOBAL_OFFSET_TABLE_+0x110>
  400e76:	68 1f 00 00 00       	pushq  $0x1f
  400e7b:	e9 f0 fd ff ff       	jmpq   400c70 <_init+0x28>

0000000000400e80 <__sprintf_chk@plt>:
  400e80:	ff 25 92 32 20 00    	jmpq   *0x203292(%rip)        # 604118 <_GLOBAL_OFFSET_TABLE_+0x118>
  400e86:	68 20 00 00 00       	pushq  $0x20
  400e8b:	e9 e0 fd ff ff       	jmpq   400c70 <_init+0x28>

0000000000400e90 <socket@plt>:
  400e90:	ff 25 8a 32 20 00    	jmpq   *0x20328a(%rip)        # 604120 <_GLOBAL_OFFSET_TABLE_+0x120>
  400e96:	68 21 00 00 00       	pushq  $0x21
  400e9b:	e9 d0 fd ff ff       	jmpq   400c70 <_init+0x28>

Disassembly of section .plt.got:

0000000000400ea0 <.plt.got>:
  400ea0:	ff 25 52 31 20 00    	jmpq   *0x203152(%rip)        # 603ff8 <_DYNAMIC+0x1d0>
  400ea6:	66 90                	xchg   %ax,%ax

Disassembly of section .text:

0000000000400eb0 <_start>:
  400eb0:	31 ed                	xor    %ebp,%ebp
  400eb2:	49 89 d1             	mov    %rdx,%r9
  400eb5:	5e                   	pop    %rsi
  400eb6:	48 89 e2             	mov    %rsp,%rdx
  400eb9:	48 83 e4 f0          	and    $0xfffffffffffffff0,%rsp
  400ebd:	50                   	push   %rax
  400ebe:	54                   	push   %rsp
  400ebf:	49 c7 c0 80 2e 40 00 	mov    $0x402e80,%r8
  400ec6:	48 c7 c1 10 2e 40 00 	mov    $0x402e10,%rcx
  400ecd:	48 c7 c7 b5 11 40 00 	mov    $0x4011b5,%rdi
  400ed4:	e8 77 fe ff ff       	callq  400d50 <__libc_start_main@plt>
  400ed9:	f4                   	hlt    
  400eda:	66 0f 1f 44 00 00    	nopw   0x0(%rax,%rax,1)

0000000000400ee0 <deregister_tm_clones>:
  400ee0:	b8 b7 44 60 00       	mov    $0x6044b7,%eax
  400ee5:	55                   	push   %rbp
  400ee6:	48 2d b0 44 60 00    	sub    $0x6044b0,%rax
  400eec:	48 83 f8 0e          	cmp    $0xe,%rax
  400ef0:	48 89 e5             	mov    %rsp,%rbp
  400ef3:	76 1b                	jbe    400f10 <deregister_tm_clones+0x30>
  400ef5:	b8 00 00 00 00       	mov    $0x0,%eax
  400efa:	48 85 c0             	test   %rax,%rax
  400efd:	74 11                	je     400f10 <deregister_tm_clones+0x30>
  400eff:	5d                   	pop    %rbp
  400f00:	bf b0 44 60 00       	mov    $0x6044b0,%edi
  400f05:	ff e0                	jmpq   *%rax
  400f07:	66 0f 1f 84 00 00 00 	nopw   0x0(%rax,%rax,1)
  400f0e:	00 00 
  400f10:	5d                   	pop    %rbp
  400f11:	c3                   	retq   
  400f12:	0f 1f 40 00          	nopl   0x0(%rax)
  400f16:	66 2e 0f 1f 84 00 00 	nopw   %cs:0x0(%rax,%rax,1)
  400f1d:	00 00 00 

0000000000400f20 <register_tm_clones>:
  400f20:	be b0 44 60 00       	mov    $0x6044b0,%esi
  400f25:	55                   	push   %rbp
  400f26:	48 81 ee b0 44 60 00 	sub    $0x6044b0,%rsi
  400f2d:	48 c1 fe 03          	sar    $0x3,%rsi
  400f31:	48 89 e5             	mov    %rsp,%rbp
  400f34:	48 89 f0             	mov    %rsi,%rax
  400f37:	48 c1 e8 3f          	shr    $0x3f,%rax
  400f3b:	48 01 c6             	add    %rax,%rsi
  400f3e:	48 d1 fe             	sar    %rsi
  400f41:	74 15                	je     400f58 <register_tm_clones+0x38>
  400f43:	b8 00 00 00 00       	mov    $0x0,%eax
  400f48:	48 85 c0             	test   %rax,%rax
  400f4b:	74 0b                	je     400f58 <register_tm_clones+0x38>
  400f4d:	5d                   	pop    %rbp
  400f4e:	bf b0 44 60 00       	mov    $0x6044b0,%edi
  400f53:	ff e0                	jmpq   *%rax
  400f55:	0f 1f 00             	nopl   (%rax)
  400f58:	5d                   	pop    %rbp
  400f59:	c3                   	retq   
  400f5a:	66 0f 1f 44 00 00    	nopw   0x0(%rax,%rax,1)

0000000000400f60 <__do_global_dtors_aux>:
  400f60:	80 3d 81 35 20 00 00 	cmpb   $0x0,0x203581(%rip)        # 6044e8 <completed.7585>
  400f67:	75 11                	jne    400f7a <__do_global_dtors_aux+0x1a>
  400f69:	55                   	push   %rbp
  400f6a:	48 89 e5             	mov    %rsp,%rbp
  400f6d:	e8 6e ff ff ff       	callq  400ee0 <deregister_tm_clones>
  400f72:	5d                   	pop    %rbp
  400f73:	c6 05 6e 35 20 00 01 	movb   $0x1,0x20356e(%rip)        # 6044e8 <completed.7585>
  400f7a:	f3 c3                	repz retq 
  400f7c:	0f 1f 40 00          	nopl   0x0(%rax)

0000000000400f80 <frame_dummy>:
  400f80:	bf 20 3e 60 00       	mov    $0x603e20,%edi
  400f85:	48 83 3f 00          	cmpq   $0x0,(%rdi)
  400f89:	75 05                	jne    400f90 <frame_dummy+0x10>
  400f8b:	eb 93                	jmp    400f20 <register_tm_clones>
  400f8d:	0f 1f 00             	nopl   (%rax)
  400f90:	b8 00 00 00 00       	mov    $0x0,%eax
  400f95:	48 85 c0             	test   %rax,%rax
  400f98:	74 f1                	je     400f8b <frame_dummy+0xb>
  400f9a:	55                   	push   %rbp
  400f9b:	48 89 e5             	mov    %rsp,%rbp
  400f9e:	ff d0                	callq  *%rax
  400fa0:	5d                   	pop    %rbp
  400fa1:	e9 7a ff ff ff       	jmpq   400f20 <register_tm_clones>

0000000000400fa6 <usage>:
  400fa6:	48 83 ec 08          	sub    $0x8,%rsp
  400faa:	48 89 fa             	mov    %rdi,%rdx
  400fad:	83 3d 74 35 20 00 00 	cmpl   $0x0,0x203574(%rip)        # 604528 <is_checker>
  400fb4:	74 3e                	je     400ff4 <usage+0x4e>
  400fb6:	be 98 2e 40 00       	mov    $0x402e98,%esi
  400fbb:	bf 01 00 00 00       	mov    $0x1,%edi
  400fc0:	b8 00 00 00 00       	mov    $0x0,%eax
  400fc5:	e8 36 fe ff ff       	callq  400e00 <__printf_chk@plt>
  400fca:	bf d0 2e 40 00       	mov    $0x402ed0,%edi
  400fcf:	e8 fc fc ff ff       	callq  400cd0 <puts@plt>
  400fd4:	bf 48 30 40 00       	mov    $0x403048,%edi
  400fd9:	e8 f2 fc ff ff       	callq  400cd0 <puts@plt>
  400fde:	bf f8 2e 40 00       	mov    $0x402ef8,%edi
  400fe3:	e8 e8 fc ff ff       	callq  400cd0 <puts@plt>
  400fe8:	bf 62 30 40 00       	mov    $0x403062,%edi
  400fed:	e8 de fc ff ff       	callq  400cd0 <puts@plt>
  400ff2:	eb 32                	jmp    401026 <usage+0x80>
  400ff4:	be 7e 30 40 00       	mov    $0x40307e,%esi
  400ff9:	bf 01 00 00 00       	mov    $0x1,%edi
  400ffe:	b8 00 00 00 00       	mov    $0x0,%eax
  401003:	e8 f8 fd ff ff       	callq  400e00 <__printf_chk@plt>
  401008:	bf 20 2f 40 00       	mov    $0x402f20,%edi
  40100d:	e8 be fc ff ff       	callq  400cd0 <puts@plt>
  401012:	bf 48 2f 40 00       	mov    $0x402f48,%edi
  401017:	e8 b4 fc ff ff       	callq  400cd0 <puts@plt>
  40101c:	bf 9c 30 40 00       	mov    $0x40309c,%edi
  401021:	e8 aa fc ff ff       	callq  400cd0 <puts@plt>
  401026:	bf 00 00 00 00       	mov    $0x0,%edi
  40102b:	e8 20 fe ff ff       	callq  400e50 <exit@plt>

0000000000401030 <initialize_target>:
  401030:	55                   	push   %rbp
  401031:	53                   	push   %rbx
  401032:	48 81 ec 18 21 00 00 	sub    $0x2118,%rsp
  401039:	89 f5                	mov    %esi,%ebp
  40103b:	64 48 8b 04 25 28 00 	mov    %fs:0x28,%rax
  401042:	00 00 
  401044:	48 89 84 24 08 21 00 	mov    %rax,0x2108(%rsp)
  40104b:	00 
  40104c:	31 c0                	xor    %eax,%eax
  40104e:	89 3d c4 34 20 00    	mov    %edi,0x2034c4(%rip)        # 604518 <check_level>
  401054:	8b 3d 0e 31 20 00    	mov    0x20310e(%rip),%edi        # 604168 <target_id>
  40105a:	e8 92 1d 00 00       	callq  402df1 <gencookie>
  40105f:	89 05 bf 34 20 00    	mov    %eax,0x2034bf(%rip)        # 604524 <cookie>
  401065:	89 c7                	mov    %eax,%edi
  401067:	e8 85 1d 00 00       	callq  402df1 <gencookie>
  40106c:	89 05 ae 34 20 00    	mov    %eax,0x2034ae(%rip)        # 604520 <authkey>
  401072:	8b 05 f0 30 20 00    	mov    0x2030f0(%rip),%eax        # 604168 <target_id>
  401078:	8d 78 01             	lea    0x1(%rax),%edi
  40107b:	e8 20 fc ff ff       	callq  400ca0 <srandom@plt>
  401080:	e8 3b fd ff ff       	callq  400dc0 <random@plt>
  401085:	89 c7                	mov    %eax,%edi
  401087:	e8 03 03 00 00       	callq  40138f <scramble>
  40108c:	89 c3                	mov    %eax,%ebx
  40108e:	85 ed                	test   %ebp,%ebp
  401090:	74 18                	je     4010aa <initialize_target+0x7a>
  401092:	bf 00 00 00 00       	mov    $0x0,%edi
  401097:	e8 14 fd ff ff       	callq  400db0 <time@plt>
  40109c:	89 c7                	mov    %eax,%edi
  40109e:	e8 fd fb ff ff       	callq  400ca0 <srandom@plt>
  4010a3:	e8 18 fd ff ff       	callq  400dc0 <random@plt>
  4010a8:	eb 05                	jmp    4010af <initialize_target+0x7f>
  4010aa:	b8 00 00 00 00       	mov    $0x0,%eax
  4010af:	01 c3                	add    %eax,%ebx
  4010b1:	0f b7 db             	movzwl %bx,%ebx
  4010b4:	8d 04 dd 00 01 00 00 	lea    0x100(,%rbx,8),%eax
  4010bb:	89 c0                	mov    %eax,%eax
  4010bd:	48 89 05 dc 33 20 00 	mov    %rax,0x2033dc(%rip)        # 6044a0 <buf_offset>
  4010c4:	c6 05 7d 40 20 00 63 	movb   $0x63,0x20407d(%rip)        # 605148 <target_prefix>
  4010cb:	83 3d d6 33 20 00 00 	cmpl   $0x0,0x2033d6(%rip)        # 6044a8 <notify>
  4010d2:	0f 84 bb 00 00 00    	je     401193 <initialize_target+0x163>
  4010d8:	83 3d 49 34 20 00 00 	cmpl   $0x0,0x203449(%rip)        # 604528 <is_checker>
  4010df:	0f 85 ae 00 00 00    	jne    401193 <initialize_target+0x163>
  4010e5:	be 00 01 00 00       	mov    $0x100,%esi
  4010ea:	48 89 e7             	mov    %rsp,%rdi
  4010ed:	e8 4e fd ff ff       	callq  400e40 <gethostname@plt>
  4010f2:	85 c0                	test   %eax,%eax
  4010f4:	74 25                	je     40111b <initialize_target+0xeb>
  4010f6:	bf 78 2f 40 00       	mov    $0x402f78,%edi
  4010fb:	e8 d0 fb ff ff       	callq  400cd0 <puts@plt>
  401100:	bf 08 00 00 00       	mov    $0x8,%edi
  401105:	e8 46 fd ff ff       	callq  400e50 <exit@plt>
  40110a:	48 89 e6             	mov    %rsp,%rsi
  40110d:	e8 6e fb ff ff       	callq  400c80 <strcasecmp@plt>
  401112:	85 c0                	test   %eax,%eax
  401114:	74 21                	je     401137 <initialize_target+0x107>
  401116:	83 c3 01             	add    $0x1,%ebx
  401119:	eb 05                	jmp    401120 <initialize_target+0xf0>
  40111b:	bb 00 00 00 00       	mov    $0x0,%ebx
  401120:	48 63 c3             	movslq %ebx,%rax
  401123:	48 8b 3c c5 80 41 60 	mov    0x604180(,%rax,8),%rdi
  40112a:	00 
  40112b:	48 85 ff             	test   %rdi,%rdi
  40112e:	75 da                	jne    40110a <initialize_target+0xda>
  401130:	b8 00 00 00 00       	mov    $0x0,%eax
  401135:	eb 05                	jmp    40113c <initialize_target+0x10c>
  401137:	b8 01 00 00 00       	mov    $0x1,%eax
  40113c:	85 c0                	test   %eax,%eax
  40113e:	75 1c                	jne    40115c <initialize_target+0x12c>
  401140:	48 89 e2             	mov    %rsp,%rdx
  401143:	be b0 2f 40 00       	mov    $0x402fb0,%esi
  401148:	bf 01 00 00 00       	mov    $0x1,%edi
  40114d:	e8 ae fc ff ff       	callq  400e00 <__printf_chk@plt>
  401152:	bf 08 00 00 00       	mov    $0x8,%edi
  401157:	e8 f4 fc ff ff       	callq  400e50 <exit@plt>
  40115c:	48 8d bc 24 00 01 00 	lea    0x100(%rsp),%rdi
  401163:	00 
  401164:	e8 f2 19 00 00       	callq  402b5b <init_driver>
  401169:	85 c0                	test   %eax,%eax
  40116b:	79 26                	jns    401193 <initialize_target+0x163>
  40116d:	48 8d 94 24 00 01 00 	lea    0x100(%rsp),%rdx
  401174:	00 
  401175:	be f0 2f 40 00       	mov    $0x402ff0,%esi
  40117a:	bf 01 00 00 00       	mov    $0x1,%edi
  40117f:	b8 00 00 00 00       	mov    $0x0,%eax
  401184:	e8 77 fc ff ff       	callq  400e00 <__printf_chk@plt>
  401189:	bf 08 00 00 00       	mov    $0x8,%edi
  40118e:	e8 bd fc ff ff       	callq  400e50 <exit@plt>
  401193:	48 8b 84 24 08 21 00 	mov    0x2108(%rsp),%rax
  40119a:	00 
  40119b:	64 48 33 04 25 28 00 	xor    %fs:0x28,%rax
  4011a2:	00 00 
  4011a4:	74 05                	je     4011ab <initialize_target+0x17b>
  4011a6:	e8 45 fb ff ff       	callq  400cf0 <__stack_chk_fail@plt>
  4011ab:	48 81 c4 18 21 00 00 	add    $0x2118,%rsp
  4011b2:	5b                   	pop    %rbx
  4011b3:	5d                   	pop    %rbp
  4011b4:	c3                   	retq   

00000000004011b5 <main>:
  4011b5:	41 56                	push   %r14
  4011b7:	41 55                	push   %r13
  4011b9:	41 54                	push   %r12
  4011bb:	55                   	push   %rbp
  4011bc:	53                   	push   %rbx
  4011bd:	41 89 fc             	mov    %edi,%r12d
  4011c0:	48 89 f3             	mov    %rsi,%rbx
  4011c3:	be 96 1e 40 00       	mov    $0x401e96,%esi
  4011c8:	bf 0b 00 00 00       	mov    $0xb,%edi
  4011cd:	e8 8e fb ff ff       	callq  400d60 <signal@plt>
  4011d2:	be 48 1e 40 00       	mov    $0x401e48,%esi
  4011d7:	bf 07 00 00 00       	mov    $0x7,%edi
  4011dc:	e8 7f fb ff ff       	callq  400d60 <signal@plt>
  4011e1:	be e4 1e 40 00       	mov    $0x401ee4,%esi
  4011e6:	bf 04 00 00 00       	mov    $0x4,%edi
  4011eb:	e8 70 fb ff ff       	callq  400d60 <signal@plt>
  4011f0:	83 3d 31 33 20 00 00 	cmpl   $0x0,0x203331(%rip)        # 604528 <is_checker>
  4011f7:	74 20                	je     401219 <main+0x64>
  4011f9:	be 32 1f 40 00       	mov    $0x401f32,%esi
  4011fe:	bf 0e 00 00 00       	mov    $0xe,%edi
  401203:	e8 58 fb ff ff       	callq  400d60 <signal@plt>
  401208:	bf 05 00 00 00       	mov    $0x5,%edi
  40120d:	e8 0e fb ff ff       	callq  400d20 <alarm@plt>
  401212:	bd ba 30 40 00       	mov    $0x4030ba,%ebp
  401217:	eb 05                	jmp    40121e <main+0x69>
  401219:	bd b5 30 40 00       	mov    $0x4030b5,%ebp
  40121e:	48 8b 05 9b 32 20 00 	mov    0x20329b(%rip),%rax        # 6044c0 <stdin@@GLIBC_2.2.5>
  401225:	48 89 05 e4 32 20 00 	mov    %rax,0x2032e4(%rip)        # 604510 <infile>
  40122c:	41 bd 00 00 00 00    	mov    $0x0,%r13d
  401232:	41 be 00 00 00 00    	mov    $0x0,%r14d
  401238:	e9 c6 00 00 00       	jmpq   401303 <main+0x14e>
  40123d:	83 e8 61             	sub    $0x61,%eax
  401240:	3c 10                	cmp    $0x10,%al
  401242:	0f 87 9c 00 00 00    	ja     4012e4 <main+0x12f>
  401248:	0f b6 c0             	movzbl %al,%eax
  40124b:	ff 24 c5 00 31 40 00 	jmpq   *0x403100(,%rax,8)
  401252:	48 8b 3b             	mov    (%rbx),%rdi
  401255:	e8 4c fd ff ff       	callq  400fa6 <usage>
  40125a:	be 65 33 40 00       	mov    $0x403365,%esi
  40125f:	48 8b 3d 62 32 20 00 	mov    0x203262(%rip),%rdi        # 6044c8 <optarg@@GLIBC_2.2.5>
  401266:	e8 a5 fb ff ff       	callq  400e10 <fopen@plt>
  40126b:	48 89 05 9e 32 20 00 	mov    %rax,0x20329e(%rip)        # 604510 <infile>
  401272:	48 85 c0             	test   %rax,%rax
  401275:	0f 85 88 00 00 00    	jne    401303 <main+0x14e>
  40127b:	48 8b 0d 46 32 20 00 	mov    0x203246(%rip),%rcx        # 6044c8 <optarg@@GLIBC_2.2.5>
  401282:	ba c2 30 40 00       	mov    $0x4030c2,%edx
  401287:	be 01 00 00 00       	mov    $0x1,%esi
  40128c:	48 8b 3d 4d 32 20 00 	mov    0x20324d(%rip),%rdi        # 6044e0 <stderr@@GLIBC_2.2.5>
  401293:	e8 d8 fb ff ff       	callq  400e70 <__fprintf_chk@plt>
  401298:	b8 01 00 00 00       	mov    $0x1,%eax
  40129d:	e9 e4 00 00 00       	jmpq   401386 <main+0x1d1>
  4012a2:	ba 10 00 00 00       	mov    $0x10,%edx
  4012a7:	be 00 00 00 00       	mov    $0x0,%esi
  4012ac:	48 8b 3d 15 32 20 00 	mov    0x203215(%rip),%rdi        # 6044c8 <optarg@@GLIBC_2.2.5>
  4012b3:	e8 78 fb ff ff       	callq  400e30 <strtoul@plt>
  4012b8:	41 89 c6             	mov    %eax,%r14d
  4012bb:	eb 46                	jmp    401303 <main+0x14e>
  4012bd:	ba 0a 00 00 00       	mov    $0xa,%edx
  4012c2:	be 00 00 00 00       	mov    $0x0,%esi
  4012c7:	48 8b 3d fa 31 20 00 	mov    0x2031fa(%rip),%rdi        # 6044c8 <optarg@@GLIBC_2.2.5>
  4012ce:	e8 bd fa ff ff       	callq  400d90 <strtol@plt>
  4012d3:	41 89 c5             	mov    %eax,%r13d
  4012d6:	eb 2b                	jmp    401303 <main+0x14e>
  4012d8:	c7 05 c6 31 20 00 00 	movl   $0x0,0x2031c6(%rip)        # 6044a8 <notify>
  4012df:	00 00 00 
  4012e2:	eb 1f                	jmp    401303 <main+0x14e>
  4012e4:	0f be d2             	movsbl %dl,%edx
  4012e7:	be df 30 40 00       	mov    $0x4030df,%esi
  4012ec:	bf 01 00 00 00       	mov    $0x1,%edi
  4012f1:	b8 00 00 00 00       	mov    $0x0,%eax
  4012f6:	e8 05 fb ff ff       	callq  400e00 <__printf_chk@plt>
  4012fb:	48 8b 3b             	mov    (%rbx),%rdi
  4012fe:	e8 a3 fc ff ff       	callq  400fa6 <usage>
  401303:	48 89 ea             	mov    %rbp,%rdx
  401306:	48 89 de             	mov    %rbx,%rsi
  401309:	44 89 e7             	mov    %r12d,%edi
  40130c:	e8 0f fb ff ff       	callq  400e20 <getopt@plt>
  401311:	89 c2                	mov    %eax,%edx
  401313:	3c ff                	cmp    $0xff,%al
  401315:	0f 85 22 ff ff ff    	jne    40123d <main+0x88>
  40131b:	be 00 00 00 00       	mov    $0x0,%esi
  401320:	44 89 ef             	mov    %r13d,%edi
  401323:	e8 08 fd ff ff       	callq  401030 <initialize_target>
  401328:	83 3d f9 31 20 00 00 	cmpl   $0x0,0x2031f9(%rip)        # 604528 <is_checker>
  40132f:	74 2a                	je     40135b <main+0x1a6>
  401331:	44 3b 35 e8 31 20 00 	cmp    0x2031e8(%rip),%r14d        # 604520 <authkey>
  401338:	74 21                	je     40135b <main+0x1a6>
  40133a:	44 89 f2             	mov    %r14d,%edx
  40133d:	be 18 30 40 00       	mov    $0x403018,%esi
  401342:	bf 01 00 00 00       	mov    $0x1,%edi
  401347:	b8 00 00 00 00       	mov    $0x0,%eax
  40134c:	e8 af fa ff ff       	callq  400e00 <__printf_chk@plt>
  401351:	b8 00 00 00 00       	mov    $0x0,%eax
  401356:	e8 89 07 00 00       	callq  401ae4 <check_fail>
  40135b:	8b 15 c3 31 20 00    	mov    0x2031c3(%rip),%edx        # 604524 <cookie>
  401361:	be f2 30 40 00       	mov    $0x4030f2,%esi
  401366:	bf 01 00 00 00       	mov    $0x1,%edi
  40136b:	b8 00 00 00 00       	mov    $0x0,%eax
  401370:	e8 8b fa ff ff       	callq  400e00 <__printf_chk@plt>
  401375:	48 8b 3d 24 31 20 00 	mov    0x203124(%rip),%rdi        # 6044a0 <buf_offset>
  40137c:	e8 b1 0c 00 00       	callq  402032 <stable_launch>
  401381:	b8 00 00 00 00       	mov    $0x0,%eax
  401386:	5b                   	pop    %rbx
  401387:	5d                   	pop    %rbp
  401388:	41 5c                	pop    %r12
  40138a:	41 5d                	pop    %r13
  40138c:	41 5e                	pop    %r14
  40138e:	c3                   	retq   

000000000040138f <scramble>:
  40138f:	48 83 ec 38          	sub    $0x38,%rsp
  401393:	64 48 8b 04 25 28 00 	mov    %fs:0x28,%rax
  40139a:	00 00 
  40139c:	48 89 44 24 28       	mov    %rax,0x28(%rsp)
  4013a1:	31 c0                	xor    %eax,%eax
  4013a3:	eb 10                	jmp    4013b5 <scramble+0x26>
  4013a5:	69 d0 b2 eb 00 00    	imul   $0xebb2,%eax,%edx
  4013ab:	01 fa                	add    %edi,%edx
  4013ad:	89 c1                	mov    %eax,%ecx
  4013af:	89 14 8c             	mov    %edx,(%rsp,%rcx,4)
  4013b2:	83 c0 01             	add    $0x1,%eax
  4013b5:	83 f8 09             	cmp    $0x9,%eax
  4013b8:	76 eb                	jbe    4013a5 <scramble+0x16>
  4013ba:	8b 44 24 1c          	mov    0x1c(%rsp),%eax
  4013be:	69 c0 4c cc 00 00    	imul   $0xcc4c,%eax,%eax
  4013c4:	89 44 24 1c          	mov    %eax,0x1c(%rsp)
  4013c8:	8b 44 24 04          	mov    0x4(%rsp),%eax
  4013cc:	69 c0 fa f7 00 00    	imul   $0xf7fa,%eax,%eax
  4013d2:	89 44 24 04          	mov    %eax,0x4(%rsp)
  4013d6:	8b 44 24 20          	mov    0x20(%rsp),%eax
  4013da:	69 c0 55 a1 00 00    	imul   $0xa155,%eax,%eax
  4013e0:	89 44 24 20          	mov    %eax,0x20(%rsp)
  4013e4:	8b 44 24 18          	mov    0x18(%rsp),%eax
  4013e8:	69 c0 c4 e3 00 00    	imul   $0xe3c4,%eax,%eax
  4013ee:	89 44 24 18          	mov    %eax,0x18(%rsp)
  4013f2:	8b 44 24 14          	mov    0x14(%rsp),%eax
  4013f6:	69 c0 72 94 00 00    	imul   $0x9472,%eax,%eax
  4013fc:	89 44 24 14          	mov    %eax,0x14(%rsp)
  401400:	8b 44 24 14          	mov    0x14(%rsp),%eax
  401404:	69 c0 31 ec 00 00    	imul   $0xec31,%eax,%eax
  40140a:	89 44 24 14          	mov    %eax,0x14(%rsp)
  40140e:	8b 44 24 04          	mov    0x4(%rsp),%eax
  401412:	69 c0 41 f5 00 00    	imul   $0xf541,%eax,%eax
  401418:	89 44 24 04          	mov    %eax,0x4(%rsp)
  40141c:	8b 44 24 04          	mov    0x4(%rsp),%eax
  401420:	69 c0 77 8d 00 00    	imul   $0x8d77,%eax,%eax
  401426:	89 44 24 04          	mov    %eax,0x4(%rsp)
  40142a:	8b 44 24 20          	mov    0x20(%rsp),%eax
  40142e:	69 c0 e4 79 00 00    	imul   $0x79e4,%eax,%eax
  401434:	89 44 24 20          	mov    %eax,0x20(%rsp)
  401438:	8b 44 24 04          	mov    0x4(%rsp),%eax
  40143c:	69 c0 b0 cb 00 00    	imul   $0xcbb0,%eax,%eax
  401442:	89 44 24 04          	mov    %eax,0x4(%rsp)
  401446:	8b 44 24 08          	mov    0x8(%rsp),%eax
  40144a:	69 c0 6a be 00 00    	imul   $0xbe6a,%eax,%eax
  401450:	89 44 24 08          	mov    %eax,0x8(%rsp)
  401454:	8b 04 24             	mov    (%rsp),%eax
  401457:	69 c0 1a ec 00 00    	imul   $0xec1a,%eax,%eax
  40145d:	89 04 24             	mov    %eax,(%rsp)
  401460:	8b 44 24 0c          	mov    0xc(%rsp),%eax
  401464:	69 c0 1c 25 00 00    	imul   $0x251c,%eax,%eax
  40146a:	89 44 24 0c          	mov    %eax,0xc(%rsp)
  40146e:	8b 44 24 10          	mov    0x10(%rsp),%eax
  401472:	69 c0 8d a7 00 00    	imul   $0xa78d,%eax,%eax
  401478:	89 44 24 10          	mov    %eax,0x10(%rsp)
  40147c:	8b 44 24 08          	mov    0x8(%rsp),%eax
  401480:	69 c0 cf d7 00 00    	imul   $0xd7cf,%eax,%eax
  401486:	89 44 24 08          	mov    %eax,0x8(%rsp)
  40148a:	8b 44 24 20          	mov    0x20(%rsp),%eax
  40148e:	69 c0 4f 09 00 00    	imul   $0x94f,%eax,%eax
  401494:	89 44 24 20          	mov    %eax,0x20(%rsp)
  401498:	8b 44 24 1c          	mov    0x1c(%rsp),%eax
  40149c:	69 c0 47 bc 00 00    	imul   $0xbc47,%eax,%eax
  4014a2:	89 44 24 1c          	mov    %eax,0x1c(%rsp)
  4014a6:	8b 44 24 24          	mov    0x24(%rsp),%eax
  4014aa:	69 c0 67 44 00 00    	imul   $0x4467,%eax,%eax
  4014b0:	89 44 24 24          	mov    %eax,0x24(%rsp)
  4014b4:	8b 44 24 24          	mov    0x24(%rsp),%eax
  4014b8:	69 c0 ff 0b 00 00    	imul   $0xbff,%eax,%eax
  4014be:	89 44 24 24          	mov    %eax,0x24(%rsp)
  4014c2:	8b 44 24 0c          	mov    0xc(%rsp),%eax
  4014c6:	69 c0 cb bf 00 00    	imul   $0xbfcb,%eax,%eax
  4014cc:	89 44 24 0c          	mov    %eax,0xc(%rsp)
  4014d0:	8b 44 24 18          	mov    0x18(%rsp),%eax
  4014d4:	69 c0 42 bb 00 00    	imul   $0xbb42,%eax,%eax
  4014da:	89 44 24 18          	mov    %eax,0x18(%rsp)
  4014de:	8b 44 24 08          	mov    0x8(%rsp),%eax
  4014e2:	69 c0 9e 00 00 00    	imul   $0x9e,%eax,%eax
  4014e8:	89 44 24 08          	mov    %eax,0x8(%rsp)
  4014ec:	8b 44 24 10          	mov    0x10(%rsp),%eax
  4014f0:	69 c0 23 96 00 00    	imul   $0x9623,%eax,%eax
  4014f6:	89 44 24 10          	mov    %eax,0x10(%rsp)
  4014fa:	8b 44 24 24          	mov    0x24(%rsp),%eax
  4014fe:	69 c0 8b fa 00 00    	imul   $0xfa8b,%eax,%eax
  401504:	89 44 24 24          	mov    %eax,0x24(%rsp)
  401508:	8b 44 24 08          	mov    0x8(%rsp),%eax
  40150c:	69 c0 14 11 00 00    	imul   $0x1114,%eax,%eax
  401512:	89 44 24 08          	mov    %eax,0x8(%rsp)
  401516:	8b 44 24 04          	mov    0x4(%rsp),%eax
  40151a:	69 c0 66 07 00 00    	imul   $0x766,%eax,%eax
  401520:	89 44 24 04          	mov    %eax,0x4(%rsp)
  401524:	8b 44 24 10          	mov    0x10(%rsp),%eax
  401528:	69 c0 46 53 00 00    	imul   $0x5346,%eax,%eax
  40152e:	89 44 24 10          	mov    %eax,0x10(%rsp)
  401532:	8b 44 24 08          	mov    0x8(%rsp),%eax
  401536:	69 c0 01 1c 00 00    	imul   $0x1c01,%eax,%eax
  40153c:	89 44 24 08          	mov    %eax,0x8(%rsp)
  401540:	8b 44 24 20          	mov    0x20(%rsp),%eax
  401544:	69 c0 ec 94 00 00    	imul   $0x94ec,%eax,%eax
  40154a:	89 44 24 20          	mov    %eax,0x20(%rsp)
  40154e:	8b 44 24 04          	mov    0x4(%rsp),%eax
  401552:	69 c0 ff 95 00 00    	imul   $0x95ff,%eax,%eax
  401558:	89 44 24 04          	mov    %eax,0x4(%rsp)
  40155c:	8b 44 24 08          	mov    0x8(%rsp),%eax
  401560:	69 c0 89 0a 00 00    	imul   $0xa89,%eax,%eax
  401566:	89 44 24 08          	mov    %eax,0x8(%rsp)
  40156a:	8b 44 24 10          	mov    0x10(%rsp),%eax
  40156e:	69 c0 d7 10 00 00    	imul   $0x10d7,%eax,%eax
  401574:	89 44 24 10          	mov    %eax,0x10(%rsp)
  401578:	8b 04 24             	mov    (%rsp),%eax
  40157b:	69 c0 97 a0 00 00    	imul   $0xa097,%eax,%eax
  401581:	89 04 24             	mov    %eax,(%rsp)
  401584:	8b 44 24 20          	mov    0x20(%rsp),%eax
  401588:	69 c0 6d 24 00 00    	imul   $0x246d,%eax,%eax
  40158e:	89 44 24 20          	mov    %eax,0x20(%rsp)
  401592:	8b 04 24             	mov    (%rsp),%eax
  401595:	69 c0 69 7d 00 00    	imul   $0x7d69,%eax,%eax
  40159b:	89 04 24             	mov    %eax,(%rsp)
  40159e:	8b 44 24 18          	mov    0x18(%rsp),%eax
  4015a2:	69 c0 07 4d 00 00    	imul   $0x4d07,%eax,%eax
  4015a8:	89 44 24 18          	mov    %eax,0x18(%rsp)
  4015ac:	8b 44 24 0c          	mov    0xc(%rsp),%eax
  4015b0:	69 c0 35 90 00 00    	imul   $0x9035,%eax,%eax
  4015b6:	89 44 24 0c          	mov    %eax,0xc(%rsp)
  4015ba:	8b 44 24 20          	mov    0x20(%rsp),%eax
  4015be:	69 c0 30 e9 00 00    	imul   $0xe930,%eax,%eax
  4015c4:	89 44 24 20          	mov    %eax,0x20(%rsp)
  4015c8:	8b 44 24 04          	mov    0x4(%rsp),%eax
  4015cc:	69 c0 bb db 00 00    	imul   $0xdbbb,%eax,%eax
  4015d2:	89 44 24 04          	mov    %eax,0x4(%rsp)
  4015d6:	8b 04 24             	mov    (%rsp),%eax
  4015d9:	69 c0 60 36 00 00    	imul   $0x3660,%eax,%eax
  4015df:	89 04 24             	mov    %eax,(%rsp)
  4015e2:	8b 44 24 08          	mov    0x8(%rsp),%eax
  4015e6:	69 c0 f7 a9 00 00    	imul   $0xa9f7,%eax,%eax
  4015ec:	89 44 24 08          	mov    %eax,0x8(%rsp)
  4015f0:	8b 44 24 04          	mov    0x4(%rsp),%eax
  4015f4:	69 c0 4f bc 00 00    	imul   $0xbc4f,%eax,%eax
  4015fa:	89 44 24 04          	mov    %eax,0x4(%rsp)
  4015fe:	8b 44 24 08          	mov    0x8(%rsp),%eax
  401602:	69 c0 47 31 00 00    	imul   $0x3147,%eax,%eax
  401608:	89 44 24 08          	mov    %eax,0x8(%rsp)
  40160c:	8b 44 24 24          	mov    0x24(%rsp),%eax
  401610:	69 c0 a0 75 00 00    	imul   $0x75a0,%eax,%eax
  401616:	89 44 24 24          	mov    %eax,0x24(%rsp)
  40161a:	8b 44 24 0c          	mov    0xc(%rsp),%eax
  40161e:	69 c0 de 9b 00 00    	imul   $0x9bde,%eax,%eax
  401624:	89 44 24 0c          	mov    %eax,0xc(%rsp)
  401628:	8b 44 24 14          	mov    0x14(%rsp),%eax
  40162c:	69 c0 ee 32 00 00    	imul   $0x32ee,%eax,%eax
  401632:	89 44 24 14          	mov    %eax,0x14(%rsp)
  401636:	8b 44 24 10          	mov    0x10(%rsp),%eax
  40163a:	69 c0 ed aa 00 00    	imul   $0xaaed,%eax,%eax
  401640:	89 44 24 10          	mov    %eax,0x10(%rsp)
  401644:	8b 44 24 20          	mov    0x20(%rsp),%eax
  401648:	69 c0 38 6d 00 00    	imul   $0x6d38,%eax,%eax
  40164e:	89 44 24 20          	mov    %eax,0x20(%rsp)
  401652:	8b 44 24 14          	mov    0x14(%rsp),%eax
  401656:	69 c0 04 99 00 00    	imul   $0x9904,%eax,%eax
  40165c:	89 44 24 14          	mov    %eax,0x14(%rsp)
  401660:	8b 44 24 18          	mov    0x18(%rsp),%eax
  401664:	69 c0 1a f8 00 00    	imul   $0xf81a,%eax,%eax
  40166a:	89 44 24 18          	mov    %eax,0x18(%rsp)
  40166e:	8b 44 24 04          	mov    0x4(%rsp),%eax
  401672:	69 c0 de 75 00 00    	imul   $0x75de,%eax,%eax
  401678:	89 44 24 04          	mov    %eax,0x4(%rsp)
  40167c:	8b 44 24 1c          	mov    0x1c(%rsp),%eax
  401680:	69 c0 1a 4f 00 00    	imul   $0x4f1a,%eax,%eax
  401686:	89 44 24 1c          	mov    %eax,0x1c(%rsp)
  40168a:	8b 04 24             	mov    (%rsp),%eax
  40168d:	69 c0 c6 92 00 00    	imul   $0x92c6,%eax,%eax
  401693:	89 04 24             	mov    %eax,(%rsp)
  401696:	8b 44 24 08          	mov    0x8(%rsp),%eax
  40169a:	69 c0 6b 2c 00 00    	imul   $0x2c6b,%eax,%eax
  4016a0:	89 44 24 08          	mov    %eax,0x8(%rsp)
  4016a4:	8b 44 24 14          	mov    0x14(%rsp),%eax
  4016a8:	69 c0 05 1c 00 00    	imul   $0x1c05,%eax,%eax
  4016ae:	89 44 24 14          	mov    %eax,0x14(%rsp)
  4016b2:	8b 44 24 04          	mov    0x4(%rsp),%eax
  4016b6:	69 c0 52 5b 00 00    	imul   $0x5b52,%eax,%eax
  4016bc:	89 44 24 04          	mov    %eax,0x4(%rsp)
  4016c0:	8b 44 24 14          	mov    0x14(%rsp),%eax
  4016c4:	69 c0 92 a0 00 00    	imul   $0xa092,%eax,%eax
  4016ca:	89 44 24 14          	mov    %eax,0x14(%rsp)
  4016ce:	8b 44 24 04          	mov    0x4(%rsp),%eax
  4016d2:	69 c0 3a c3 00 00    	imul   $0xc33a,%eax,%eax
  4016d8:	89 44 24 04          	mov    %eax,0x4(%rsp)
  4016dc:	8b 44 24 20          	mov    0x20(%rsp),%eax
  4016e0:	69 c0 f1 ef 00 00    	imul   $0xeff1,%eax,%eax
  4016e6:	89 44 24 20          	mov    %eax,0x20(%rsp)
  4016ea:	8b 44 24 0c          	mov    0xc(%rsp),%eax
  4016ee:	69 c0 0c 98 00 00    	imul   $0x980c,%eax,%eax
  4016f4:	89 44 24 0c          	mov    %eax,0xc(%rsp)
  4016f8:	8b 44 24 10          	mov    0x10(%rsp),%eax
  4016fc:	69 c0 79 44 00 00    	imul   $0x4479,%eax,%eax
  401702:	89 44 24 10          	mov    %eax,0x10(%rsp)
  401706:	8b 04 24             	mov    (%rsp),%eax
  401709:	69 c0 37 32 00 00    	imul   $0x3237,%eax,%eax
  40170f:	89 04 24             	mov    %eax,(%rsp)
  401712:	8b 44 24 04          	mov    0x4(%rsp),%eax
  401716:	69 c0 c0 0e 00 00    	imul   $0xec0,%eax,%eax
  40171c:	89 44 24 04          	mov    %eax,0x4(%rsp)
  401720:	8b 44 24 14          	mov    0x14(%rsp),%eax
  401724:	69 c0 ea 3a 00 00    	imul   $0x3aea,%eax,%eax
  40172a:	89 44 24 14          	mov    %eax,0x14(%rsp)
  40172e:	8b 44 24 18          	mov    0x18(%rsp),%eax
  401732:	69 c0 14 31 00 00    	imul   $0x3114,%eax,%eax
  401738:	89 44 24 18          	mov    %eax,0x18(%rsp)
  40173c:	8b 44 24 18          	mov    0x18(%rsp),%eax
  401740:	69 c0 33 be 00 00    	imul   $0xbe33,%eax,%eax
  401746:	89 44 24 18          	mov    %eax,0x18(%rsp)
  40174a:	8b 44 24 14          	mov    0x14(%rsp),%eax
  40174e:	69 c0 25 78 00 00    	imul   $0x7825,%eax,%eax
  401754:	89 44 24 14          	mov    %eax,0x14(%rsp)
  401758:	8b 44 24 08          	mov    0x8(%rsp),%eax
  40175c:	69 c0 05 ad 00 00    	imul   $0xad05,%eax,%eax
  401762:	89 44 24 08          	mov    %eax,0x8(%rsp)
  401766:	8b 44 24 04          	mov    0x4(%rsp),%eax
  40176a:	69 c0 97 45 00 00    	imul   $0x4597,%eax,%eax
  401770:	89 44 24 04          	mov    %eax,0x4(%rsp)
  401774:	8b 04 24             	mov    (%rsp),%eax
  401777:	69 c0 6e 79 00 00    	imul   $0x796e,%eax,%eax
  40177d:	89 04 24             	mov    %eax,(%rsp)
  401780:	8b 04 24             	mov    (%rsp),%eax
  401783:	69 c0 3c 3c 00 00    	imul   $0x3c3c,%eax,%eax
  401789:	89 04 24             	mov    %eax,(%rsp)
  40178c:	8b 04 24             	mov    (%rsp),%eax
  40178f:	69 c0 99 27 00 00    	imul   $0x2799,%eax,%eax
  401795:	89 04 24             	mov    %eax,(%rsp)
  401798:	8b 44 24 20          	mov    0x20(%rsp),%eax
  40179c:	69 c0 61 ec 00 00    	imul   $0xec61,%eax,%eax
  4017a2:	89 44 24 20          	mov    %eax,0x20(%rsp)
  4017a6:	8b 44 24 20          	mov    0x20(%rsp),%eax
  4017aa:	69 c0 a7 ae 00 00    	imul   $0xaea7,%eax,%eax
  4017b0:	89 44 24 20          	mov    %eax,0x20(%rsp)
  4017b4:	8b 44 24 0c          	mov    0xc(%rsp),%eax
  4017b8:	69 c0 ae 23 00 00    	imul   $0x23ae,%eax,%eax
  4017be:	89 44 24 0c          	mov    %eax,0xc(%rsp)
  4017c2:	8b 44 24 08          	mov    0x8(%rsp),%eax
  4017c6:	69 c0 21 68 00 00    	imul   $0x6821,%eax,%eax
  4017cc:	89 44 24 08          	mov    %eax,0x8(%rsp)
  4017d0:	8b 04 24             	mov    (%rsp),%eax
  4017d3:	69 c0 ae 11 00 00    	imul   $0x11ae,%eax,%eax
  4017d9:	89 04 24             	mov    %eax,(%rsp)
  4017dc:	8b 44 24 20          	mov    0x20(%rsp),%eax
  4017e0:	69 c0 8e 57 00 00    	imul   $0x578e,%eax,%eax
  4017e6:	89 44 24 20          	mov    %eax,0x20(%rsp)
  4017ea:	8b 44 24 0c          	mov    0xc(%rsp),%eax
  4017ee:	69 c0 c7 39 00 00    	imul   $0x39c7,%eax,%eax
  4017f4:	89 44 24 0c          	mov    %eax,0xc(%rsp)
  4017f8:	8b 44 24 08          	mov    0x8(%rsp),%eax
  4017fc:	69 c0 33 c8 00 00    	imul   $0xc833,%eax,%eax
  401802:	89 44 24 08          	mov    %eax,0x8(%rsp)
  401806:	8b 44 24 18          	mov    0x18(%rsp),%eax
  40180a:	69 c0 7d c5 00 00    	imul   $0xc57d,%eax,%eax
  401810:	89 44 24 18          	mov    %eax,0x18(%rsp)
  401814:	8b 44 24 24          	mov    0x24(%rsp),%eax
  401818:	69 c0 ce 11 00 00    	imul   $0x11ce,%eax,%eax
  40181e:	89 44 24 24          	mov    %eax,0x24(%rsp)
  401822:	8b 44 24 18          	mov    0x18(%rsp),%eax
  401826:	69 c0 b3 93 00 00    	imul   $0x93b3,%eax,%eax
  40182c:	89 44 24 18          	mov    %eax,0x18(%rsp)
  401830:	8b 44 24 20          	mov    0x20(%rsp),%eax
  401834:	69 c0 8f 48 00 00    	imul   $0x488f,%eax,%eax
  40183a:	89 44 24 20          	mov    %eax,0x20(%rsp)
  40183e:	8b 44 24 04          	mov    0x4(%rsp),%eax
  401842:	69 c0 45 98 00 00    	imul   $0x9845,%eax,%eax
  401848:	89 44 24 04          	mov    %eax,0x4(%rsp)
  40184c:	8b 44 24 24          	mov    0x24(%rsp),%eax
  401850:	69 c0 e7 3a 00 00    	imul   $0x3ae7,%eax,%eax
  401856:	89 44 24 24          	mov    %eax,0x24(%rsp)
  40185a:	ba 00 00 00 00       	mov    $0x0,%edx
  40185f:	b8 00 00 00 00       	mov    $0x0,%eax
  401864:	eb 0a                	jmp    401870 <scramble+0x4e1>
  401866:	89 d1                	mov    %edx,%ecx
  401868:	8b 0c 8c             	mov    (%rsp,%rcx,4),%ecx
  40186b:	01 c8                	add    %ecx,%eax
  40186d:	83 c2 01             	add    $0x1,%edx
  401870:	83 fa 09             	cmp    $0x9,%edx
  401873:	76 f1                	jbe    401866 <scramble+0x4d7>
  401875:	48 8b 74 24 28       	mov    0x28(%rsp),%rsi
  40187a:	64 48 33 34 25 28 00 	xor    %fs:0x28,%rsi
  401881:	00 00 
  401883:	74 05                	je     40188a <scramble+0x4fb>
  401885:	e8 66 f4 ff ff       	callq  400cf0 <__stack_chk_fail@plt>
  40188a:	48 83 c4 38          	add    $0x38,%rsp
  40188e:	c3                   	retq   

000000000040188f <getbuf>:
  40188f:	48 83 ec 28          	sub    $0x28,%rsp
  401893:	48 89 e7             	mov    %rsp,%rdi
  401896:	e8 7e 02 00 00       	callq  401b19 <Gets>
  40189b:	b8 01 00 00 00       	mov    $0x1,%eax
  4018a0:	48 83 c4 28          	add    $0x28,%rsp
  4018a4:	c3                   	retq   

00000000004018a5 <touch1>:
  4018a5:	48 83 ec 08          	sub    $0x8,%rsp
  4018a9:	c7 05 69 2c 20 00 01 	movl   $0x1,0x202c69(%rip)        # 60451c <vlevel>
  4018b0:	00 00 00 
  4018b3:	bf bb 31 40 00       	mov    $0x4031bb,%edi
  4018b8:	e8 13 f4 ff ff       	callq  400cd0 <puts@plt>
  4018bd:	bf 01 00 00 00       	mov    $0x1,%edi
  4018c2:	e8 97 04 00 00       	callq  401d5e <validate>
  4018c7:	bf 00 00 00 00       	mov    $0x0,%edi
  4018cc:	e8 7f f5 ff ff       	callq  400e50 <exit@plt>

00000000004018d1 <touch2>:
  4018d1:	48 83 ec 08          	sub    $0x8,%rsp
  4018d5:	89 fa                	mov    %edi,%edx
  4018d7:	c7 05 3b 2c 20 00 02 	movl   $0x2,0x202c3b(%rip)        # 60451c <vlevel>
  4018de:	00 00 00 
  4018e1:	39 3d 3d 2c 20 00    	cmp    %edi,0x202c3d(%rip)        # 604524 <cookie>
  4018e7:	75 20                	jne    401909 <touch2+0x38>
  4018e9:	be e0 31 40 00       	mov    $0x4031e0,%esi
  4018ee:	bf 01 00 00 00       	mov    $0x1,%edi
  4018f3:	b8 00 00 00 00       	mov    $0x0,%eax
  4018f8:	e8 03 f5 ff ff       	callq  400e00 <__printf_chk@plt>
  4018fd:	bf 02 00 00 00       	mov    $0x2,%edi
  401902:	e8 57 04 00 00       	callq  401d5e <validate>
  401907:	eb 1e                	jmp    401927 <touch2+0x56>
  401909:	be 08 32 40 00       	mov    $0x403208,%esi
  40190e:	bf 01 00 00 00       	mov    $0x1,%edi
  401913:	b8 00 00 00 00       	mov    $0x0,%eax
  401918:	e8 e3 f4 ff ff       	callq  400e00 <__printf_chk@plt>
  40191d:	bf 02 00 00 00       	mov    $0x2,%edi
  401922:	e8 f9 04 00 00       	callq  401e20 <fail>
  401927:	bf 00 00 00 00       	mov    $0x0,%edi
  40192c:	e8 1f f5 ff ff       	callq  400e50 <exit@plt>

0000000000401931 <hexmatch>:
  401931:	41 54                	push   %r12
  401933:	55                   	push   %rbp
  401934:	53                   	push   %rbx
  401935:	48 83 c4 80          	add    $0xffffffffffffff80,%rsp
  401939:	89 fd                	mov    %edi,%ebp
  40193b:	48 89 f3             	mov    %rsi,%rbx
  40193e:	64 48 8b 04 25 28 00 	mov    %fs:0x28,%rax
  401945:	00 00 
  401947:	48 89 44 24 78       	mov    %rax,0x78(%rsp)
  40194c:	31 c0                	xor    %eax,%eax
  40194e:	e8 6d f4 ff ff       	callq  400dc0 <random@plt>
  401953:	48 89 c1             	mov    %rax,%rcx
  401956:	48 ba 0b d7 a3 70 3d 	movabs $0xa3d70a3d70a3d70b,%rdx
  40195d:	0a d7 a3 
  401960:	48 f7 ea             	imul   %rdx
  401963:	48 01 ca             	add    %rcx,%rdx
  401966:	48 c1 fa 06          	sar    $0x6,%rdx
  40196a:	48 89 c8             	mov    %rcx,%rax
  40196d:	48 c1 f8 3f          	sar    $0x3f,%rax
  401971:	48 29 c2             	sub    %rax,%rdx
  401974:	48 8d 04 92          	lea    (%rdx,%rdx,4),%rax
  401978:	48 8d 14 80          	lea    (%rax,%rax,4),%rdx
  40197c:	48 8d 04 95 00 00 00 	lea    0x0(,%rdx,4),%rax
  401983:	00 
  401984:	48 29 c1             	sub    %rax,%rcx
  401987:	4c 8d 24 0c          	lea    (%rsp,%rcx,1),%r12
  40198b:	41 89 e8             	mov    %ebp,%r8d
  40198e:	b9 d8 31 40 00       	mov    $0x4031d8,%ecx
  401993:	48 c7 c2 ff ff ff ff 	mov    $0xffffffffffffffff,%rdx
  40199a:	be 01 00 00 00       	mov    $0x1,%esi
  40199f:	4c 89 e7             	mov    %r12,%rdi
  4019a2:	b8 00 00 00 00       	mov    $0x0,%eax
  4019a7:	e8 d4 f4 ff ff       	callq  400e80 <__sprintf_chk@plt>
  4019ac:	ba 09 00 00 00       	mov    $0x9,%edx
  4019b1:	4c 89 e6             	mov    %r12,%rsi
  4019b4:	48 89 df             	mov    %rbx,%rdi
  4019b7:	e8 f4 f2 ff ff       	callq  400cb0 <strncmp@plt>
  4019bc:	85 c0                	test   %eax,%eax
  4019be:	0f 94 c0             	sete   %al
  4019c1:	48 8b 5c 24 78       	mov    0x78(%rsp),%rbx
  4019c6:	64 48 33 1c 25 28 00 	xor    %fs:0x28,%rbx
  4019cd:	00 00 
  4019cf:	74 05                	je     4019d6 <hexmatch+0xa5>
  4019d1:	e8 1a f3 ff ff       	callq  400cf0 <__stack_chk_fail@plt>
  4019d6:	0f b6 c0             	movzbl %al,%eax
  4019d9:	48 83 ec 80          	sub    $0xffffffffffffff80,%rsp
  4019dd:	5b                   	pop    %rbx
  4019de:	5d                   	pop    %rbp
  4019df:	41 5c                	pop    %r12
  4019e1:	c3                   	retq   

00000000004019e2 <touch3>:
  4019e2:	53                   	push   %rbx
  4019e3:	48 89 fb             	mov    %rdi,%rbx
  4019e6:	c7 05 2c 2b 20 00 03 	movl   $0x3,0x202b2c(%rip)        # 60451c <vlevel>
  4019ed:	00 00 00 
  4019f0:	48 89 fe             	mov    %rdi,%rsi
  4019f3:	8b 3d 2b 2b 20 00    	mov    0x202b2b(%rip),%edi        # 604524 <cookie>
  4019f9:	e8 33 ff ff ff       	callq  401931 <hexmatch>
  4019fe:	85 c0                	test   %eax,%eax
  401a00:	74 23                	je     401a25 <touch3+0x43>
  401a02:	48 89 da             	mov    %rbx,%rdx
  401a05:	be 30 32 40 00       	mov    $0x403230,%esi
  401a0a:	bf 01 00 00 00       	mov    $0x1,%edi
  401a0f:	b8 00 00 00 00       	mov    $0x0,%eax
  401a14:	e8 e7 f3 ff ff       	callq  400e00 <__printf_chk@plt>
  401a19:	bf 03 00 00 00       	mov    $0x3,%edi
  401a1e:	e8 3b 03 00 00       	callq  401d5e <validate>
  401a23:	eb 21                	jmp    401a46 <touch3+0x64>
  401a25:	48 89 da             	mov    %rbx,%rdx
  401a28:	be 58 32 40 00       	mov    $0x403258,%esi
  401a2d:	bf 01 00 00 00       	mov    $0x1,%edi
  401a32:	b8 00 00 00 00       	mov    $0x0,%eax
  401a37:	e8 c4 f3 ff ff       	callq  400e00 <__printf_chk@plt>
  401a3c:	bf 03 00 00 00       	mov    $0x3,%edi
  401a41:	e8 da 03 00 00       	callq  401e20 <fail>
  401a46:	bf 00 00 00 00       	mov    $0x0,%edi
  401a4b:	e8 00 f4 ff ff       	callq  400e50 <exit@plt>

0000000000401a50 <test>:
  401a50:	48 83 ec 08          	sub    $0x8,%rsp
  401a54:	b8 00 00 00 00       	mov    $0x0,%eax
  401a59:	e8 31 fe ff ff       	callq  40188f <getbuf>
  401a5e:	89 c2                	mov    %eax,%edx
  401a60:	be 80 32 40 00       	mov    $0x403280,%esi
  401a65:	bf 01 00 00 00       	mov    $0x1,%edi
  401a6a:	b8 00 00 00 00       	mov    $0x0,%eax
  401a6f:	e8 8c f3 ff ff       	callq  400e00 <__printf_chk@plt>
  401a74:	48 83 c4 08          	add    $0x8,%rsp
  401a78:	c3                   	retq   

0000000000401a79 <save_char>:
  401a79:	8b 05 c5 36 20 00    	mov    0x2036c5(%rip),%eax        # 605144 <gets_cnt>
  401a7f:	3d ff 03 00 00       	cmp    $0x3ff,%eax
  401a84:	7f 49                	jg     401acf <save_char+0x56>
  401a86:	8d 14 40             	lea    (%rax,%rax,2),%edx
  401a89:	89 f9                	mov    %edi,%ecx
  401a8b:	c0 e9 04             	shr    $0x4,%cl
  401a8e:	83 e1 0f             	and    $0xf,%ecx
  401a91:	0f b6 b1 a0 35 40 00 	movzbl 0x4035a0(%rcx),%esi
  401a98:	48 63 ca             	movslq %edx,%rcx
  401a9b:	40 88 b1 40 45 60 00 	mov    %sil,0x604540(%rcx)
  401aa2:	8d 4a 01             	lea    0x1(%rdx),%ecx
  401aa5:	83 e7 0f             	and    $0xf,%edi
  401aa8:	0f b6 b7 a0 35 40 00 	movzbl 0x4035a0(%rdi),%esi
  401aaf:	48 63 c9             	movslq %ecx,%rcx
  401ab2:	40 88 b1 40 45 60 00 	mov    %sil,0x604540(%rcx)
  401ab9:	83 c2 02             	add    $0x2,%edx
  401abc:	48 63 d2             	movslq %edx,%rdx
  401abf:	c6 82 40 45 60 00 20 	movb   $0x20,0x604540(%rdx)
  401ac6:	83 c0 01             	add    $0x1,%eax
  401ac9:	89 05 75 36 20 00    	mov    %eax,0x203675(%rip)        # 605144 <gets_cnt>
  401acf:	f3 c3                	repz retq 

0000000000401ad1 <save_term>:
  401ad1:	8b 05 6d 36 20 00    	mov    0x20366d(%rip),%eax        # 605144 <gets_cnt>
  401ad7:	8d 04 40             	lea    (%rax,%rax,2),%eax
  401ada:	48 98                	cltq   
  401adc:	c6 80 40 45 60 00 00 	movb   $0x0,0x604540(%rax)
  401ae3:	c3                   	retq   

0000000000401ae4 <check_fail>:
  401ae4:	48 83 ec 08          	sub    $0x8,%rsp
  401ae8:	0f be 15 59 36 20 00 	movsbl 0x203659(%rip),%edx        # 605148 <target_prefix>
  401aef:	41 b8 40 45 60 00    	mov    $0x604540,%r8d
  401af5:	8b 0d 1d 2a 20 00    	mov    0x202a1d(%rip),%ecx        # 604518 <check_level>
  401afb:	be a3 32 40 00       	mov    $0x4032a3,%esi
  401b00:	bf 01 00 00 00       	mov    $0x1,%edi
  401b05:	b8 00 00 00 00       	mov    $0x0,%eax
  401b0a:	e8 f1 f2 ff ff       	callq  400e00 <__printf_chk@plt>
  401b0f:	bf 01 00 00 00       	mov    $0x1,%edi
  401b14:	e8 37 f3 ff ff       	callq  400e50 <exit@plt>

0000000000401b19 <Gets>:
  401b19:	41 54                	push   %r12
  401b1b:	55                   	push   %rbp
  401b1c:	53                   	push   %rbx
  401b1d:	49 89 fc             	mov    %rdi,%r12
  401b20:	c7 05 1a 36 20 00 00 	movl   $0x0,0x20361a(%rip)        # 605144 <gets_cnt>
  401b27:	00 00 00 
  401b2a:	48 89 fb             	mov    %rdi,%rbx
  401b2d:	eb 11                	jmp    401b40 <Gets+0x27>
  401b2f:	48 8d 6b 01          	lea    0x1(%rbx),%rbp
  401b33:	88 03                	mov    %al,(%rbx)
  401b35:	0f b6 f8             	movzbl %al,%edi
  401b38:	e8 3c ff ff ff       	callq  401a79 <save_char>
  401b3d:	48 89 eb             	mov    %rbp,%rbx
  401b40:	48 8b 3d c9 29 20 00 	mov    0x2029c9(%rip),%rdi        # 604510 <infile>
  401b47:	e8 84 f2 ff ff       	callq  400dd0 <_IO_getc@plt>
  401b4c:	83 f8 ff             	cmp    $0xffffffff,%eax
  401b4f:	74 05                	je     401b56 <Gets+0x3d>
  401b51:	83 f8 0a             	cmp    $0xa,%eax
  401b54:	75 d9                	jne    401b2f <Gets+0x16>
  401b56:	c6 03 00             	movb   $0x0,(%rbx)
  401b59:	b8 00 00 00 00       	mov    $0x0,%eax
  401b5e:	e8 6e ff ff ff       	callq  401ad1 <save_term>
  401b63:	4c 89 e0             	mov    %r12,%rax
  401b66:	5b                   	pop    %rbx
  401b67:	5d                   	pop    %rbp
  401b68:	41 5c                	pop    %r12
  401b6a:	c3                   	retq   

0000000000401b6b <notify_server>:
  401b6b:	53                   	push   %rbx
  401b6c:	48 81 ec 10 40 00 00 	sub    $0x4010,%rsp
  401b73:	64 48 8b 04 25 28 00 	mov    %fs:0x28,%rax
  401b7a:	00 00 
  401b7c:	48 89 84 24 08 40 00 	mov    %rax,0x4008(%rsp)
  401b83:	00 
  401b84:	31 c0                	xor    %eax,%eax
  401b86:	83 3d 9b 29 20 00 00 	cmpl   $0x0,0x20299b(%rip)        # 604528 <is_checker>
  401b8d:	0f 85 aa 01 00 00    	jne    401d3d <notify_server+0x1d2>
  401b93:	89 fb                	mov    %edi,%ebx
  401b95:	8b 05 a9 35 20 00    	mov    0x2035a9(%rip),%eax        # 605144 <gets_cnt>
  401b9b:	83 c0 64             	add    $0x64,%eax
  401b9e:	3d 00 20 00 00       	cmp    $0x2000,%eax
  401ba3:	7e 1e                	jle    401bc3 <notify_server+0x58>
  401ba5:	be d8 33 40 00       	mov    $0x4033d8,%esi
  401baa:	bf 01 00 00 00       	mov    $0x1,%edi
  401baf:	b8 00 00 00 00       	mov    $0x0,%eax
  401bb4:	e8 47 f2 ff ff       	callq  400e00 <__printf_chk@plt>
  401bb9:	bf 01 00 00 00       	mov    $0x1,%edi
  401bbe:	e8 8d f2 ff ff       	callq  400e50 <exit@plt>
  401bc3:	0f be 05 7e 35 20 00 	movsbl 0x20357e(%rip),%eax        # 605148 <target_prefix>
  401bca:	83 3d d7 28 20 00 00 	cmpl   $0x0,0x2028d7(%rip)        # 6044a8 <notify>
  401bd1:	74 08                	je     401bdb <notify_server+0x70>
  401bd3:	8b 15 47 29 20 00    	mov    0x202947(%rip),%edx        # 604520 <authkey>
  401bd9:	eb 05                	jmp    401be0 <notify_server+0x75>
  401bdb:	ba ff ff ff ff       	mov    $0xffffffff,%edx
  401be0:	85 db                	test   %ebx,%ebx
  401be2:	74 08                	je     401bec <notify_server+0x81>
  401be4:	41 b9 b9 32 40 00    	mov    $0x4032b9,%r9d
  401bea:	eb 06                	jmp    401bf2 <notify_server+0x87>
  401bec:	41 b9 be 32 40 00    	mov    $0x4032be,%r9d
  401bf2:	68 40 45 60 00       	pushq  $0x604540
  401bf7:	56                   	push   %rsi
  401bf8:	50                   	push   %rax
  401bf9:	52                   	push   %rdx
  401bfa:	44 8b 05 67 25 20 00 	mov    0x202567(%rip),%r8d        # 604168 <target_id>
  401c01:	b9 c3 32 40 00       	mov    $0x4032c3,%ecx
  401c06:	ba 00 20 00 00       	mov    $0x2000,%edx
  401c0b:	be 01 00 00 00       	mov    $0x1,%esi
  401c10:	48 8d 7c 24 20       	lea    0x20(%rsp),%rdi
  401c15:	b8 00 00 00 00       	mov    $0x0,%eax
  401c1a:	e8 61 f2 ff ff       	callq  400e80 <__sprintf_chk@plt>
  401c1f:	48 83 c4 20          	add    $0x20,%rsp
  401c23:	83 3d 7e 28 20 00 00 	cmpl   $0x0,0x20287e(%rip)        # 6044a8 <notify>
  401c2a:	0f 84 81 00 00 00    	je     401cb1 <notify_server+0x146>
  401c30:	85 db                	test   %ebx,%ebx
  401c32:	74 6e                	je     401ca2 <notify_server+0x137>
  401c34:	4c 8d 8c 24 00 20 00 	lea    0x2000(%rsp),%r9
  401c3b:	00 
  401c3c:	41 b8 00 00 00 00    	mov    $0x0,%r8d
  401c42:	48 89 e1             	mov    %rsp,%rcx
  401c45:	48 8b 15 24 25 20 00 	mov    0x202524(%rip),%rdx        # 604170 <lab>
  401c4c:	48 8b 35 25 25 20 00 	mov    0x202525(%rip),%rsi        # 604178 <course>
  401c53:	48 8b 3d 06 25 20 00 	mov    0x202506(%rip),%rdi        # 604160 <user_id>
  401c5a:	e8 ef 10 00 00       	callq  402d4e <driver_post>
  401c5f:	85 c0                	test   %eax,%eax
  401c61:	79 26                	jns    401c89 <notify_server+0x11e>
  401c63:	48 8d 94 24 00 20 00 	lea    0x2000(%rsp),%rdx
  401c6a:	00 
  401c6b:	be df 32 40 00       	mov    $0x4032df,%esi
  401c70:	bf 01 00 00 00       	mov    $0x1,%edi
  401c75:	b8 00 00 00 00       	mov    $0x0,%eax
  401c7a:	e8 81 f1 ff ff       	callq  400e00 <__printf_chk@plt>
  401c7f:	bf 01 00 00 00       	mov    $0x1,%edi
  401c84:	e8 c7 f1 ff ff       	callq  400e50 <exit@plt>
  401c89:	bf 08 34 40 00       	mov    $0x403408,%edi
  401c8e:	e8 3d f0 ff ff       	callq  400cd0 <puts@plt>
  401c93:	bf eb 32 40 00       	mov    $0x4032eb,%edi
  401c98:	e8 33 f0 ff ff       	callq  400cd0 <puts@plt>
  401c9d:	e9 9b 00 00 00       	jmpq   401d3d <notify_server+0x1d2>
  401ca2:	bf f5 32 40 00       	mov    $0x4032f5,%edi
  401ca7:	e8 24 f0 ff ff       	callq  400cd0 <puts@plt>
  401cac:	e9 8c 00 00 00       	jmpq   401d3d <notify_server+0x1d2>
  401cb1:	85 db                	test   %ebx,%ebx
  401cb3:	74 07                	je     401cbc <notify_server+0x151>
  401cb5:	ba b9 32 40 00       	mov    $0x4032b9,%edx
  401cba:	eb 05                	jmp    401cc1 <notify_server+0x156>
  401cbc:	ba be 32 40 00       	mov    $0x4032be,%edx
  401cc1:	be 40 34 40 00       	mov    $0x403440,%esi
  401cc6:	bf 01 00 00 00       	mov    $0x1,%edi
  401ccb:	b8 00 00 00 00       	mov    $0x0,%eax
  401cd0:	e8 2b f1 ff ff       	callq  400e00 <__printf_chk@plt>
  401cd5:	48 8b 15 84 24 20 00 	mov    0x202484(%rip),%rdx        # 604160 <user_id>
  401cdc:	be fc 32 40 00       	mov    $0x4032fc,%esi
  401ce1:	bf 01 00 00 00       	mov    $0x1,%edi
  401ce6:	b8 00 00 00 00       	mov    $0x0,%eax
  401ceb:	e8 10 f1 ff ff       	callq  400e00 <__printf_chk@plt>
  401cf0:	48 8b 15 81 24 20 00 	mov    0x202481(%rip),%rdx        # 604178 <course>
  401cf7:	be 09 33 40 00       	mov    $0x403309,%esi
  401cfc:	bf 01 00 00 00       	mov    $0x1,%edi
  401d01:	b8 00 00 00 00       	mov    $0x0,%eax
  401d06:	e8 f5 f0 ff ff       	callq  400e00 <__printf_chk@plt>
  401d0b:	48 8b 15 5e 24 20 00 	mov    0x20245e(%rip),%rdx        # 604170 <lab>
  401d12:	be 15 33 40 00       	mov    $0x403315,%esi
  401d17:	bf 01 00 00 00       	mov    $0x1,%edi
  401d1c:	b8 00 00 00 00       	mov    $0x0,%eax
  401d21:	e8 da f0 ff ff       	callq  400e00 <__printf_chk@plt>
  401d26:	48 89 e2             	mov    %rsp,%rdx
  401d29:	be 1e 33 40 00       	mov    $0x40331e,%esi
  401d2e:	bf 01 00 00 00       	mov    $0x1,%edi
  401d33:	b8 00 00 00 00       	mov    $0x0,%eax
  401d38:	e8 c3 f0 ff ff       	callq  400e00 <__printf_chk@plt>
  401d3d:	48 8b 84 24 08 40 00 	mov    0x4008(%rsp),%rax
  401d44:	00 
  401d45:	64 48 33 04 25 28 00 	xor    %fs:0x28,%rax
  401d4c:	00 00 
  401d4e:	74 05                	je     401d55 <notify_server+0x1ea>
  401d50:	e8 9b ef ff ff       	callq  400cf0 <__stack_chk_fail@plt>
  401d55:	48 81 c4 10 40 00 00 	add    $0x4010,%rsp
  401d5c:	5b                   	pop    %rbx
  401d5d:	c3                   	retq   

0000000000401d5e <validate>:
  401d5e:	53                   	push   %rbx
  401d5f:	89 fb                	mov    %edi,%ebx
  401d61:	83 3d c0 27 20 00 00 	cmpl   $0x0,0x2027c0(%rip)        # 604528 <is_checker>
  401d68:	74 6b                	je     401dd5 <validate+0x77>
  401d6a:	39 3d ac 27 20 00    	cmp    %edi,0x2027ac(%rip)        # 60451c <vlevel>
  401d70:	74 14                	je     401d86 <validate+0x28>
  401d72:	bf 2a 33 40 00       	mov    $0x40332a,%edi
  401d77:	e8 54 ef ff ff       	callq  400cd0 <puts@plt>
  401d7c:	b8 00 00 00 00       	mov    $0x0,%eax
  401d81:	e8 5e fd ff ff       	callq  401ae4 <check_fail>
  401d86:	8b 15 8c 27 20 00    	mov    0x20278c(%rip),%edx        # 604518 <check_level>
  401d8c:	39 d7                	cmp    %edx,%edi
  401d8e:	74 20                	je     401db0 <validate+0x52>
  401d90:	89 f9                	mov    %edi,%ecx
  401d92:	be 68 34 40 00       	mov    $0x403468,%esi
  401d97:	bf 01 00 00 00       	mov    $0x1,%edi
  401d9c:	b8 00 00 00 00       	mov    $0x0,%eax
  401da1:	e8 5a f0 ff ff       	callq  400e00 <__printf_chk@plt>
  401da6:	b8 00 00 00 00       	mov    $0x0,%eax
  401dab:	e8 34 fd ff ff       	callq  401ae4 <check_fail>
  401db0:	0f be 15 91 33 20 00 	movsbl 0x203391(%rip),%edx        # 605148 <target_prefix>
  401db7:	41 b8 40 45 60 00    	mov    $0x604540,%r8d
  401dbd:	89 f9                	mov    %edi,%ecx
  401dbf:	be 48 33 40 00       	mov    $0x403348,%esi
  401dc4:	bf 01 00 00 00       	mov    $0x1,%edi
  401dc9:	b8 00 00 00 00       	mov    $0x0,%eax
  401dce:	e8 2d f0 ff ff       	callq  400e00 <__printf_chk@plt>
  401dd3:	eb 49                	jmp    401e1e <validate+0xc0>
  401dd5:	3b 3d 41 27 20 00    	cmp    0x202741(%rip),%edi        # 60451c <vlevel>
  401ddb:	74 18                	je     401df5 <validate+0x97>
  401ddd:	bf 2a 33 40 00       	mov    $0x40332a,%edi
  401de2:	e8 e9 ee ff ff       	callq  400cd0 <puts@plt>
  401de7:	89 de                	mov    %ebx,%esi
  401de9:	bf 00 00 00 00       	mov    $0x0,%edi
  401dee:	e8 78 fd ff ff       	callq  401b6b <notify_server>
  401df3:	eb 29                	jmp    401e1e <validate+0xc0>
  401df5:	0f be 0d 4c 33 20 00 	movsbl 0x20334c(%rip),%ecx        # 605148 <target_prefix>
  401dfc:	89 fa                	mov    %edi,%edx
  401dfe:	be 90 34 40 00       	mov    $0x403490,%esi
  401e03:	bf 01 00 00 00       	mov    $0x1,%edi
  401e08:	b8 00 00 00 00       	mov    $0x0,%eax
  401e0d:	e8 ee ef ff ff       	callq  400e00 <__printf_chk@plt>
  401e12:	89 de                	mov    %ebx,%esi
  401e14:	bf 01 00 00 00       	mov    $0x1,%edi
  401e19:	e8 4d fd ff ff       	callq  401b6b <notify_server>
  401e1e:	5b                   	pop    %rbx
  401e1f:	c3                   	retq   

0000000000401e20 <fail>:
  401e20:	48 83 ec 08          	sub    $0x8,%rsp
  401e24:	83 3d fd 26 20 00 00 	cmpl   $0x0,0x2026fd(%rip)        # 604528 <is_checker>
  401e2b:	74 0a                	je     401e37 <fail+0x17>
  401e2d:	b8 00 00 00 00       	mov    $0x0,%eax
  401e32:	e8 ad fc ff ff       	callq  401ae4 <check_fail>
  401e37:	89 fe                	mov    %edi,%esi
  401e39:	bf 00 00 00 00       	mov    $0x0,%edi
  401e3e:	e8 28 fd ff ff       	callq  401b6b <notify_server>
  401e43:	48 83 c4 08          	add    $0x8,%rsp
  401e47:	c3                   	retq   

0000000000401e48 <bushandler>:
  401e48:	48 83 ec 08          	sub    $0x8,%rsp
  401e4c:	83 3d d5 26 20 00 00 	cmpl   $0x0,0x2026d5(%rip)        # 604528 <is_checker>
  401e53:	74 14                	je     401e69 <bushandler+0x21>
  401e55:	bf 5d 33 40 00       	mov    $0x40335d,%edi
  401e5a:	e8 71 ee ff ff       	callq  400cd0 <puts@plt>
  401e5f:	b8 00 00 00 00       	mov    $0x0,%eax
  401e64:	e8 7b fc ff ff       	callq  401ae4 <check_fail>
  401e69:	bf c8 34 40 00       	mov    $0x4034c8,%edi
  401e6e:	e8 5d ee ff ff       	callq  400cd0 <puts@plt>
  401e73:	bf 67 33 40 00       	mov    $0x403367,%edi
  401e78:	e8 53 ee ff ff       	callq  400cd0 <puts@plt>
  401e7d:	be 00 00 00 00       	mov    $0x0,%esi
  401e82:	bf 00 00 00 00       	mov    $0x0,%edi
  401e87:	e8 df fc ff ff       	callq  401b6b <notify_server>
  401e8c:	bf 01 00 00 00       	mov    $0x1,%edi
  401e91:	e8 ba ef ff ff       	callq  400e50 <exit@plt>

0000000000401e96 <seghandler>:
  401e96:	48 83 ec 08          	sub    $0x8,%rsp
  401e9a:	83 3d 87 26 20 00 00 	cmpl   $0x0,0x202687(%rip)        # 604528 <is_checker>
  401ea1:	74 14                	je     401eb7 <seghandler+0x21>
  401ea3:	bf 7d 33 40 00       	mov    $0x40337d,%edi
  401ea8:	e8 23 ee ff ff       	callq  400cd0 <puts@plt>
  401ead:	b8 00 00 00 00       	mov    $0x0,%eax
  401eb2:	e8 2d fc ff ff       	callq  401ae4 <check_fail>
  401eb7:	bf e8 34 40 00       	mov    $0x4034e8,%edi
  401ebc:	e8 0f ee ff ff       	callq  400cd0 <puts@plt>
  401ec1:	bf 67 33 40 00       	mov    $0x403367,%edi
  401ec6:	e8 05 ee ff ff       	callq  400cd0 <puts@plt>
  401ecb:	be 00 00 00 00       	mov    $0x0,%esi
  401ed0:	bf 00 00 00 00       	mov    $0x0,%edi
  401ed5:	e8 91 fc ff ff       	callq  401b6b <notify_server>
  401eda:	bf 01 00 00 00       	mov    $0x1,%edi
  401edf:	e8 6c ef ff ff       	callq  400e50 <exit@plt>

0000000000401ee4 <illegalhandler>:
  401ee4:	48 83 ec 08          	sub    $0x8,%rsp
  401ee8:	83 3d 39 26 20 00 00 	cmpl   $0x0,0x202639(%rip)        # 604528 <is_checker>
  401eef:	74 14                	je     401f05 <illegalhandler+0x21>
  401ef1:	bf 90 33 40 00       	mov    $0x403390,%edi
  401ef6:	e8 d5 ed ff ff       	callq  400cd0 <puts@plt>
  401efb:	b8 00 00 00 00       	mov    $0x0,%eax
  401f00:	e8 df fb ff ff       	callq  401ae4 <check_fail>
  401f05:	bf 10 35 40 00       	mov    $0x403510,%edi
  401f0a:	e8 c1 ed ff ff       	callq  400cd0 <puts@plt>
  401f0f:	bf 67 33 40 00       	mov    $0x403367,%edi
  401f14:	e8 b7 ed ff ff       	callq  400cd0 <puts@plt>
  401f19:	be 00 00 00 00       	mov    $0x0,%esi
  401f1e:	bf 00 00 00 00       	mov    $0x0,%edi
  401f23:	e8 43 fc ff ff       	callq  401b6b <notify_server>
  401f28:	bf 01 00 00 00       	mov    $0x1,%edi
  401f2d:	e8 1e ef ff ff       	callq  400e50 <exit@plt>

0000000000401f32 <sigalrmhandler>:
  401f32:	48 83 ec 08          	sub    $0x8,%rsp
  401f36:	83 3d eb 25 20 00 00 	cmpl   $0x0,0x2025eb(%rip)        # 604528 <is_checker>
  401f3d:	74 14                	je     401f53 <sigalrmhandler+0x21>
  401f3f:	bf a4 33 40 00       	mov    $0x4033a4,%edi
  401f44:	e8 87 ed ff ff       	callq  400cd0 <puts@plt>
  401f49:	b8 00 00 00 00       	mov    $0x0,%eax
  401f4e:	e8 91 fb ff ff       	callq  401ae4 <check_fail>
  401f53:	ba 05 00 00 00       	mov    $0x5,%edx
  401f58:	be 40 35 40 00       	mov    $0x403540,%esi
  401f5d:	bf 01 00 00 00       	mov    $0x1,%edi
  401f62:	b8 00 00 00 00       	mov    $0x0,%eax
  401f67:	e8 94 ee ff ff       	callq  400e00 <__printf_chk@plt>
  401f6c:	be 00 00 00 00       	mov    $0x0,%esi
  401f71:	bf 00 00 00 00       	mov    $0x0,%edi
  401f76:	e8 f0 fb ff ff       	callq  401b6b <notify_server>
  401f7b:	bf 01 00 00 00       	mov    $0x1,%edi
  401f80:	e8 cb ee ff ff       	callq  400e50 <exit@plt>

0000000000401f85 <launch>:
  401f85:	55                   	push   %rbp
  401f86:	48 89 e5             	mov    %rsp,%rbp
  401f89:	48 83 ec 10          	sub    $0x10,%rsp
  401f8d:	48 89 fa             	mov    %rdi,%rdx
  401f90:	64 48 8b 04 25 28 00 	mov    %fs:0x28,%rax
  401f97:	00 00 
  401f99:	48 89 45 f8          	mov    %rax,-0x8(%rbp)
  401f9d:	31 c0                	xor    %eax,%eax
  401f9f:	48 8d 47 1e          	lea    0x1e(%rdi),%rax
  401fa3:	48 83 e0 f0          	and    $0xfffffffffffffff0,%rax
  401fa7:	48 29 c4             	sub    %rax,%rsp
  401faa:	48 8d 7c 24 0f       	lea    0xf(%rsp),%rdi
  401faf:	48 83 e7 f0          	and    $0xfffffffffffffff0,%rdi
  401fb3:	be f4 00 00 00       	mov    $0xf4,%esi
  401fb8:	e8 53 ed ff ff       	callq  400d10 <memset@plt>
  401fbd:	48 8b 05 fc 24 20 00 	mov    0x2024fc(%rip),%rax        # 6044c0 <stdin@@GLIBC_2.2.5>
  401fc4:	48 39 05 45 25 20 00 	cmp    %rax,0x202545(%rip)        # 604510 <infile>
  401fcb:	75 14                	jne    401fe1 <launch+0x5c>
  401fcd:	be ac 33 40 00       	mov    $0x4033ac,%esi
  401fd2:	bf 01 00 00 00       	mov    $0x1,%edi
  401fd7:	b8 00 00 00 00       	mov    $0x0,%eax
  401fdc:	e8 1f ee ff ff       	callq  400e00 <__printf_chk@plt>
  401fe1:	c7 05 31 25 20 00 00 	movl   $0x0,0x202531(%rip)        # 60451c <vlevel>
  401fe8:	00 00 00 
  401feb:	b8 00 00 00 00       	mov    $0x0,%eax
  401ff0:	e8 5b fa ff ff       	callq  401a50 <test>
  401ff5:	83 3d 2c 25 20 00 00 	cmpl   $0x0,0x20252c(%rip)        # 604528 <is_checker>
  401ffc:	74 14                	je     402012 <launch+0x8d>
  401ffe:	bf b9 33 40 00       	mov    $0x4033b9,%edi
  402003:	e8 c8 ec ff ff       	callq  400cd0 <puts@plt>
  402008:	b8 00 00 00 00       	mov    $0x0,%eax
  40200d:	e8 d2 fa ff ff       	callq  401ae4 <check_fail>
  402012:	bf c4 33 40 00       	mov    $0x4033c4,%edi
  402017:	e8 b4 ec ff ff       	callq  400cd0 <puts@plt>
  40201c:	48 8b 45 f8          	mov    -0x8(%rbp),%rax
  402020:	64 48 33 04 25 28 00 	xor    %fs:0x28,%rax
  402027:	00 00 
  402029:	74 05                	je     402030 <launch+0xab>
  40202b:	e8 c0 ec ff ff       	callq  400cf0 <__stack_chk_fail@plt>
  402030:	c9                   	leaveq 
  402031:	c3                   	retq   

0000000000402032 <stable_launch>:
  402032:	53                   	push   %rbx
  402033:	48 89 3d ce 24 20 00 	mov    %rdi,0x2024ce(%rip)        # 604508 <global_offset>
  40203a:	41 b9 00 00 00 00    	mov    $0x0,%r9d
  402040:	41 b8 00 00 00 00    	mov    $0x0,%r8d
  402046:	b9 32 01 00 00       	mov    $0x132,%ecx
  40204b:	ba 07 00 00 00       	mov    $0x7,%edx
  402050:	be 00 00 10 00       	mov    $0x100000,%esi
  402055:	bf 00 60 58 55       	mov    $0x55586000,%edi
  40205a:	e8 a1 ec ff ff       	callq  400d00 <mmap@plt>
  40205f:	48 89 c3             	mov    %rax,%rbx
  402062:	48 3d 00 60 58 55    	cmp    $0x55586000,%rax
  402068:	74 37                	je     4020a1 <stable_launch+0x6f>
  40206a:	be 00 00 10 00       	mov    $0x100000,%esi
  40206f:	48 89 c7             	mov    %rax,%rdi
  402072:	e8 79 ed ff ff       	callq  400df0 <munmap@plt>
  402077:	b9 00 60 58 55       	mov    $0x55586000,%ecx
  40207c:	ba 78 35 40 00       	mov    $0x403578,%edx
  402081:	be 01 00 00 00       	mov    $0x1,%esi
  402086:	48 8b 3d 53 24 20 00 	mov    0x202453(%rip),%rdi        # 6044e0 <stderr@@GLIBC_2.2.5>
  40208d:	b8 00 00 00 00       	mov    $0x0,%eax
  402092:	e8 d9 ed ff ff       	callq  400e70 <__fprintf_chk@plt>
  402097:	bf 01 00 00 00       	mov    $0x1,%edi
  40209c:	e8 af ed ff ff       	callq  400e50 <exit@plt>
  4020a1:	48 8d 90 f8 ff 0f 00 	lea    0xffff8(%rax),%rdx
  4020a8:	48 89 15 a1 30 20 00 	mov    %rdx,0x2030a1(%rip)        # 605150 <stack_top>
  4020af:	48 89 e0             	mov    %rsp,%rax
  4020b2:	48 89 d4             	mov    %rdx,%rsp
  4020b5:	48 89 c2             	mov    %rax,%rdx
  4020b8:	48 89 15 41 24 20 00 	mov    %rdx,0x202441(%rip)        # 604500 <global_save_stack>
  4020bf:	48 8b 3d 42 24 20 00 	mov    0x202442(%rip),%rdi        # 604508 <global_offset>
  4020c6:	e8 ba fe ff ff       	callq  401f85 <launch>
  4020cb:	48 8b 05 2e 24 20 00 	mov    0x20242e(%rip),%rax        # 604500 <global_save_stack>
  4020d2:	48 89 c4             	mov    %rax,%rsp
  4020d5:	be 00 00 10 00       	mov    $0x100000,%esi
  4020da:	48 89 df             	mov    %rbx,%rdi
  4020dd:	e8 0e ed ff ff       	callq  400df0 <munmap@plt>
  4020e2:	5b                   	pop    %rbx
  4020e3:	c3                   	retq   

00000000004020e4 <rio_readinitb>:
  4020e4:	89 37                	mov    %esi,(%rdi)
  4020e6:	c7 47 04 00 00 00 00 	movl   $0x0,0x4(%rdi)
  4020ed:	48 8d 47 10          	lea    0x10(%rdi),%rax
  4020f1:	48 89 47 08          	mov    %rax,0x8(%rdi)
  4020f5:	c3                   	retq   

00000000004020f6 <sigalrm_handler>:
  4020f6:	48 83 ec 08          	sub    $0x8,%rsp
  4020fa:	b9 00 00 00 00       	mov    $0x0,%ecx
  4020ff:	ba b0 35 40 00       	mov    $0x4035b0,%edx
  402104:	be 01 00 00 00       	mov    $0x1,%esi
  402109:	48 8b 3d d0 23 20 00 	mov    0x2023d0(%rip),%rdi        # 6044e0 <stderr@@GLIBC_2.2.5>
  402110:	b8 00 00 00 00       	mov    $0x0,%eax
  402115:	e8 56 ed ff ff       	callq  400e70 <__fprintf_chk@plt>
  40211a:	bf 01 00 00 00       	mov    $0x1,%edi
  40211f:	e8 2c ed ff ff       	callq  400e50 <exit@plt>

0000000000402124 <rio_writen>:
  402124:	41 55                	push   %r13
  402126:	41 54                	push   %r12
  402128:	55                   	push   %rbp
  402129:	53                   	push   %rbx
  40212a:	48 83 ec 08          	sub    $0x8,%rsp
  40212e:	41 89 fc             	mov    %edi,%r12d
  402131:	48 89 f5             	mov    %rsi,%rbp
  402134:	49 89 d5             	mov    %rdx,%r13
  402137:	48 89 d3             	mov    %rdx,%rbx
  40213a:	eb 28                	jmp    402164 <rio_writen+0x40>
  40213c:	48 89 da             	mov    %rbx,%rdx
  40213f:	48 89 ee             	mov    %rbp,%rsi
  402142:	44 89 e7             	mov    %r12d,%edi
  402145:	e8 96 eb ff ff       	callq  400ce0 <write@plt>
  40214a:	48 85 c0             	test   %rax,%rax
  40214d:	7f 0f                	jg     40215e <rio_writen+0x3a>
  40214f:	e8 3c eb ff ff       	callq  400c90 <__errno_location@plt>
  402154:	83 38 04             	cmpl   $0x4,(%rax)
  402157:	75 15                	jne    40216e <rio_writen+0x4a>
  402159:	b8 00 00 00 00       	mov    $0x0,%eax
  40215e:	48 29 c3             	sub    %rax,%rbx
  402161:	48 01 c5             	add    %rax,%rbp
  402164:	48 85 db             	test   %rbx,%rbx
  402167:	75 d3                	jne    40213c <rio_writen+0x18>
  402169:	4c 89 e8             	mov    %r13,%rax
  40216c:	eb 07                	jmp    402175 <rio_writen+0x51>
  40216e:	48 c7 c0 ff ff ff ff 	mov    $0xffffffffffffffff,%rax
  402175:	48 83 c4 08          	add    $0x8,%rsp
  402179:	5b                   	pop    %rbx
  40217a:	5d                   	pop    %rbp
  40217b:	41 5c                	pop    %r12
  40217d:	41 5d                	pop    %r13
  40217f:	c3                   	retq   

0000000000402180 <rio_read>:
  402180:	41 55                	push   %r13
  402182:	41 54                	push   %r12
  402184:	55                   	push   %rbp
  402185:	53                   	push   %rbx
  402186:	48 83 ec 08          	sub    $0x8,%rsp
  40218a:	48 89 fb             	mov    %rdi,%rbx
  40218d:	49 89 f5             	mov    %rsi,%r13
  402190:	49 89 d4             	mov    %rdx,%r12
  402193:	eb 2e                	jmp    4021c3 <rio_read+0x43>
  402195:	48 8d 6b 10          	lea    0x10(%rbx),%rbp
  402199:	8b 3b                	mov    (%rbx),%edi
  40219b:	ba 00 20 00 00       	mov    $0x2000,%edx
  4021a0:	48 89 ee             	mov    %rbp,%rsi
  4021a3:	e8 98 eb ff ff       	callq  400d40 <read@plt>
  4021a8:	89 43 04             	mov    %eax,0x4(%rbx)
  4021ab:	85 c0                	test   %eax,%eax
  4021ad:	79 0c                	jns    4021bb <rio_read+0x3b>
  4021af:	e8 dc ea ff ff       	callq  400c90 <__errno_location@plt>
  4021b4:	83 38 04             	cmpl   $0x4,(%rax)
  4021b7:	74 0a                	je     4021c3 <rio_read+0x43>
  4021b9:	eb 37                	jmp    4021f2 <rio_read+0x72>
  4021bb:	85 c0                	test   %eax,%eax
  4021bd:	74 3c                	je     4021fb <rio_read+0x7b>
  4021bf:	48 89 6b 08          	mov    %rbp,0x8(%rbx)
  4021c3:	8b 6b 04             	mov    0x4(%rbx),%ebp
  4021c6:	85 ed                	test   %ebp,%ebp
  4021c8:	7e cb                	jle    402195 <rio_read+0x15>
  4021ca:	89 e8                	mov    %ebp,%eax
  4021cc:	49 39 c4             	cmp    %rax,%r12
  4021cf:	77 03                	ja     4021d4 <rio_read+0x54>
  4021d1:	44 89 e5             	mov    %r12d,%ebp
  4021d4:	4c 63 e5             	movslq %ebp,%r12
  4021d7:	48 8b 73 08          	mov    0x8(%rbx),%rsi
  4021db:	4c 89 e2             	mov    %r12,%rdx
  4021de:	4c 89 ef             	mov    %r13,%rdi
  4021e1:	e8 ba eb ff ff       	callq  400da0 <memcpy@plt>
  4021e6:	4c 01 63 08          	add    %r12,0x8(%rbx)
  4021ea:	29 6b 04             	sub    %ebp,0x4(%rbx)
  4021ed:	4c 89 e0             	mov    %r12,%rax
  4021f0:	eb 0e                	jmp    402200 <rio_read+0x80>
  4021f2:	48 c7 c0 ff ff ff ff 	mov    $0xffffffffffffffff,%rax
  4021f9:	eb 05                	jmp    402200 <rio_read+0x80>
  4021fb:	b8 00 00 00 00       	mov    $0x0,%eax
  402200:	48 83 c4 08          	add    $0x8,%rsp
  402204:	5b                   	pop    %rbx
  402205:	5d                   	pop    %rbp
  402206:	41 5c                	pop    %r12
  402208:	41 5d                	pop    %r13
  40220a:	c3                   	retq   

000000000040220b <rio_readlineb>:
  40220b:	41 55                	push   %r13
  40220d:	41 54                	push   %r12
  40220f:	55                   	push   %rbp
  402210:	53                   	push   %rbx
  402211:	48 83 ec 18          	sub    $0x18,%rsp
  402215:	49 89 fd             	mov    %rdi,%r13
  402218:	48 89 f5             	mov    %rsi,%rbp
  40221b:	49 89 d4             	mov    %rdx,%r12
  40221e:	64 48 8b 04 25 28 00 	mov    %fs:0x28,%rax
  402225:	00 00 
  402227:	48 89 44 24 08       	mov    %rax,0x8(%rsp)
  40222c:	31 c0                	xor    %eax,%eax
  40222e:	bb 01 00 00 00       	mov    $0x1,%ebx
  402233:	eb 3f                	jmp    402274 <rio_readlineb+0x69>
  402235:	ba 01 00 00 00       	mov    $0x1,%edx
  40223a:	48 8d 74 24 07       	lea    0x7(%rsp),%rsi
  40223f:	4c 89 ef             	mov    %r13,%rdi
  402242:	e8 39 ff ff ff       	callq  402180 <rio_read>
  402247:	83 f8 01             	cmp    $0x1,%eax
  40224a:	75 15                	jne    402261 <rio_readlineb+0x56>
  40224c:	48 8d 45 01          	lea    0x1(%rbp),%rax
  402250:	0f b6 54 24 07       	movzbl 0x7(%rsp),%edx
  402255:	88 55 00             	mov    %dl,0x0(%rbp)
  402258:	80 7c 24 07 0a       	cmpb   $0xa,0x7(%rsp)
  40225d:	75 0e                	jne    40226d <rio_readlineb+0x62>
  40225f:	eb 1a                	jmp    40227b <rio_readlineb+0x70>
  402261:	85 c0                	test   %eax,%eax
  402263:	75 22                	jne    402287 <rio_readlineb+0x7c>
  402265:	48 83 fb 01          	cmp    $0x1,%rbx
  402269:	75 13                	jne    40227e <rio_readlineb+0x73>
  40226b:	eb 23                	jmp    402290 <rio_readlineb+0x85>
  40226d:	48 83 c3 01          	add    $0x1,%rbx
  402271:	48 89 c5             	mov    %rax,%rbp
  402274:	4c 39 e3             	cmp    %r12,%rbx
  402277:	72 bc                	jb     402235 <rio_readlineb+0x2a>
  402279:	eb 03                	jmp    40227e <rio_readlineb+0x73>
  40227b:	48 89 c5             	mov    %rax,%rbp
  40227e:	c6 45 00 00          	movb   $0x0,0x0(%rbp)
  402282:	48 89 d8             	mov    %rbx,%rax
  402285:	eb 0e                	jmp    402295 <rio_readlineb+0x8a>
  402287:	48 c7 c0 ff ff ff ff 	mov    $0xffffffffffffffff,%rax
  40228e:	eb 05                	jmp    402295 <rio_readlineb+0x8a>
  402290:	b8 00 00 00 00       	mov    $0x0,%eax
  402295:	48 8b 4c 24 08       	mov    0x8(%rsp),%rcx
  40229a:	64 48 33 0c 25 28 00 	xor    %fs:0x28,%rcx
  4022a1:	00 00 
  4022a3:	74 05                	je     4022aa <rio_readlineb+0x9f>
  4022a5:	e8 46 ea ff ff       	callq  400cf0 <__stack_chk_fail@plt>
  4022aa:	48 83 c4 18          	add    $0x18,%rsp
  4022ae:	5b                   	pop    %rbx
  4022af:	5d                   	pop    %rbp
  4022b0:	41 5c                	pop    %r12
  4022b2:	41 5d                	pop    %r13
  4022b4:	c3                   	retq   

00000000004022b5 <urlencode>:
  4022b5:	41 54                	push   %r12
  4022b7:	55                   	push   %rbp
  4022b8:	53                   	push   %rbx
  4022b9:	48 83 ec 10          	sub    $0x10,%rsp
  4022bd:	48 89 fb             	mov    %rdi,%rbx
  4022c0:	48 89 f5             	mov    %rsi,%rbp
  4022c3:	64 48 8b 04 25 28 00 	mov    %fs:0x28,%rax
  4022ca:	00 00 
  4022cc:	48 89 44 24 08       	mov    %rax,0x8(%rsp)
  4022d1:	31 c0                	xor    %eax,%eax
  4022d3:	48 c7 c1 ff ff ff ff 	mov    $0xffffffffffffffff,%rcx
  4022da:	f2 ae                	repnz scas %es:(%rdi),%al
  4022dc:	48 f7 d1             	not    %rcx
  4022df:	8d 41 ff             	lea    -0x1(%rcx),%eax
  4022e2:	e9 aa 00 00 00       	jmpq   402391 <urlencode+0xdc>
  4022e7:	44 0f b6 03          	movzbl (%rbx),%r8d
  4022eb:	41 80 f8 2a          	cmp    $0x2a,%r8b
  4022ef:	0f 94 c2             	sete   %dl
  4022f2:	41 80 f8 2d          	cmp    $0x2d,%r8b
  4022f6:	0f 94 c0             	sete   %al
  4022f9:	08 c2                	or     %al,%dl
  4022fb:	75 24                	jne    402321 <urlencode+0x6c>
  4022fd:	41 80 f8 2e          	cmp    $0x2e,%r8b
  402301:	74 1e                	je     402321 <urlencode+0x6c>
  402303:	41 80 f8 5f          	cmp    $0x5f,%r8b
  402307:	74 18                	je     402321 <urlencode+0x6c>
  402309:	41 8d 40 d0          	lea    -0x30(%r8),%eax
  40230d:	3c 09                	cmp    $0x9,%al
  40230f:	76 10                	jbe    402321 <urlencode+0x6c>
  402311:	41 8d 40 bf          	lea    -0x41(%r8),%eax
  402315:	3c 19                	cmp    $0x19,%al
  402317:	76 08                	jbe    402321 <urlencode+0x6c>
  402319:	41 8d 40 9f          	lea    -0x61(%r8),%eax
  40231d:	3c 19                	cmp    $0x19,%al
  40231f:	77 0a                	ja     40232b <urlencode+0x76>
  402321:	44 88 45 00          	mov    %r8b,0x0(%rbp)
  402325:	48 8d 6d 01          	lea    0x1(%rbp),%rbp
  402329:	eb 5f                	jmp    40238a <urlencode+0xd5>
  40232b:	41 80 f8 20          	cmp    $0x20,%r8b
  40232f:	75 0a                	jne    40233b <urlencode+0x86>
  402331:	c6 45 00 2b          	movb   $0x2b,0x0(%rbp)
  402335:	48 8d 6d 01          	lea    0x1(%rbp),%rbp
  402339:	eb 4f                	jmp    40238a <urlencode+0xd5>
  40233b:	41 8d 40 e0          	lea    -0x20(%r8),%eax
  40233f:	3c 5f                	cmp    $0x5f,%al
  402341:	0f 96 c2             	setbe  %dl
  402344:	41 80 f8 09          	cmp    $0x9,%r8b
  402348:	0f 94 c0             	sete   %al
  40234b:	08 c2                	or     %al,%dl
  40234d:	74 50                	je     40239f <urlencode+0xea>
  40234f:	45 0f b6 c0          	movzbl %r8b,%r8d
  402353:	b9 48 36 40 00       	mov    $0x403648,%ecx
  402358:	ba 08 00 00 00       	mov    $0x8,%edx
  40235d:	be 01 00 00 00       	mov    $0x1,%esi
  402362:	48 89 e7             	mov    %rsp,%rdi
  402365:	b8 00 00 00 00       	mov    $0x0,%eax
  40236a:	e8 11 eb ff ff       	callq  400e80 <__sprintf_chk@plt>
  40236f:	0f b6 04 24          	movzbl (%rsp),%eax
  402373:	88 45 00             	mov    %al,0x0(%rbp)
  402376:	0f b6 44 24 01       	movzbl 0x1(%rsp),%eax
  40237b:	88 45 01             	mov    %al,0x1(%rbp)
  40237e:	0f b6 44 24 02       	movzbl 0x2(%rsp),%eax
  402383:	88 45 02             	mov    %al,0x2(%rbp)
  402386:	48 8d 6d 03          	lea    0x3(%rbp),%rbp
  40238a:	48 83 c3 01          	add    $0x1,%rbx
  40238e:	44 89 e0             	mov    %r12d,%eax
  402391:	44 8d 60 ff          	lea    -0x1(%rax),%r12d
  402395:	85 c0                	test   %eax,%eax
  402397:	0f 85 4a ff ff ff    	jne    4022e7 <urlencode+0x32>
  40239d:	eb 05                	jmp    4023a4 <urlencode+0xef>
  40239f:	b8 ff ff ff ff       	mov    $0xffffffff,%eax
  4023a4:	48 8b 74 24 08       	mov    0x8(%rsp),%rsi
  4023a9:	64 48 33 34 25 28 00 	xor    %fs:0x28,%rsi
  4023b0:	00 00 
  4023b2:	74 05                	je     4023b9 <urlencode+0x104>
  4023b4:	e8 37 e9 ff ff       	callq  400cf0 <__stack_chk_fail@plt>
  4023b9:	48 83 c4 10          	add    $0x10,%rsp
  4023bd:	5b                   	pop    %rbx
  4023be:	5d                   	pop    %rbp
  4023bf:	41 5c                	pop    %r12
  4023c1:	c3                   	retq   

00000000004023c2 <submitr>:
  4023c2:	41 57                	push   %r15
  4023c4:	41 56                	push   %r14
  4023c6:	41 55                	push   %r13
  4023c8:	41 54                	push   %r12
  4023ca:	55                   	push   %rbp
  4023cb:	53                   	push   %rbx
  4023cc:	48 81 ec 58 a0 00 00 	sub    $0xa058,%rsp
  4023d3:	49 89 fc             	mov    %rdi,%r12
  4023d6:	89 74 24 04          	mov    %esi,0x4(%rsp)
  4023da:	49 89 d7             	mov    %rdx,%r15
  4023dd:	49 89 ce             	mov    %rcx,%r14
  4023e0:	4c 89 44 24 08       	mov    %r8,0x8(%rsp)
  4023e5:	4d 89 cd             	mov    %r9,%r13
  4023e8:	48 8b 9c 24 90 a0 00 	mov    0xa090(%rsp),%rbx
  4023ef:	00 
  4023f0:	64 48 8b 04 25 28 00 	mov    %fs:0x28,%rax
  4023f7:	00 00 
  4023f9:	48 89 84 24 48 a0 00 	mov    %rax,0xa048(%rsp)
  402400:	00 
  402401:	31 c0                	xor    %eax,%eax
  402403:	c7 44 24 1c 00 00 00 	movl   $0x0,0x1c(%rsp)
  40240a:	00 
  40240b:	ba 00 00 00 00       	mov    $0x0,%edx
  402410:	be 01 00 00 00       	mov    $0x1,%esi
  402415:	bf 02 00 00 00       	mov    $0x2,%edi
  40241a:	e8 71 ea ff ff       	callq  400e90 <socket@plt>
  40241f:	85 c0                	test   %eax,%eax
  402421:	79 4e                	jns    402471 <submitr+0xaf>
  402423:	48 b8 45 72 72 6f 72 	movabs $0x43203a726f727245,%rax
  40242a:	3a 20 43 
  40242d:	48 89 03             	mov    %rax,(%rbx)
  402430:	48 b8 6c 69 65 6e 74 	movabs $0x6e7520746e65696c,%rax
  402437:	20 75 6e 
  40243a:	48 89 43 08          	mov    %rax,0x8(%rbx)
  40243e:	48 b8 61 62 6c 65 20 	movabs $0x206f7420656c6261,%rax
  402445:	74 6f 20 
  402448:	48 89 43 10          	mov    %rax,0x10(%rbx)
  40244c:	48 b8 63 72 65 61 74 	movabs $0x7320657461657263,%rax
  402453:	65 20 73 
  402456:	48 89 43 18          	mov    %rax,0x18(%rbx)
  40245a:	c7 43 20 6f 63 6b 65 	movl   $0x656b636f,0x20(%rbx)
  402461:	66 c7 43 24 74 00    	movw   $0x74,0x24(%rbx)
  402467:	b8 ff ff ff ff       	mov    $0xffffffff,%eax
  40246c:	e9 97 06 00 00       	jmpq   402b08 <submitr+0x746>
  402471:	89 c5                	mov    %eax,%ebp
  402473:	4c 89 e7             	mov    %r12,%rdi
  402476:	e8 f5 e8 ff ff       	callq  400d70 <gethostbyname@plt>
  40247b:	48 85 c0             	test   %rax,%rax
  40247e:	75 67                	jne    4024e7 <submitr+0x125>
  402480:	48 b8 45 72 72 6f 72 	movabs $0x44203a726f727245,%rax
  402487:	3a 20 44 
  40248a:	48 89 03             	mov    %rax,(%rbx)
  40248d:	48 b8 4e 53 20 69 73 	movabs $0x6e7520736920534e,%rax
  402494:	20 75 6e 
  402497:	48 89 43 08          	mov    %rax,0x8(%rbx)
  40249b:	48 b8 61 62 6c 65 20 	movabs $0x206f7420656c6261,%rax
  4024a2:	74 6f 20 
  4024a5:	48 89 43 10          	mov    %rax,0x10(%rbx)
  4024a9:	48 b8 72 65 73 6f 6c 	movabs $0x2065766c6f736572,%rax
  4024b0:	76 65 20 
  4024b3:	48 89 43 18          	mov    %rax,0x18(%rbx)
  4024b7:	48 b8 73 65 72 76 65 	movabs $0x6120726576726573,%rax
  4024be:	72 20 61 
  4024c1:	48 89 43 20          	mov    %rax,0x20(%rbx)
  4024c5:	c7 43 28 64 64 72 65 	movl   $0x65726464,0x28(%rbx)
  4024cc:	66 c7 43 2c 73 73    	movw   $0x7373,0x2c(%rbx)
  4024d2:	c6 43 2e 00          	movb   $0x0,0x2e(%rbx)
  4024d6:	89 ef                	mov    %ebp,%edi
  4024d8:	e8 53 e8 ff ff       	callq  400d30 <close@plt>
  4024dd:	b8 ff ff ff ff       	mov    $0xffffffff,%eax
  4024e2:	e9 21 06 00 00       	jmpq   402b08 <submitr+0x746>
  4024e7:	48 c7 44 24 20 00 00 	movq   $0x0,0x20(%rsp)
  4024ee:	00 00 
  4024f0:	48 c7 44 24 28 00 00 	movq   $0x0,0x28(%rsp)
  4024f7:	00 00 
  4024f9:	66 c7 44 24 20 02 00 	movw   $0x2,0x20(%rsp)
  402500:	48 63 50 14          	movslq 0x14(%rax),%rdx
  402504:	48 8b 40 18          	mov    0x18(%rax),%rax
  402508:	48 8b 30             	mov    (%rax),%rsi
  40250b:	48 8d 7c 24 24       	lea    0x24(%rsp),%rdi
  402510:	b9 0c 00 00 00       	mov    $0xc,%ecx
  402515:	e8 66 e8 ff ff       	callq  400d80 <__memmove_chk@plt>
  40251a:	0f b7 44 24 04       	movzwl 0x4(%rsp),%eax
  40251f:	66 c1 c8 08          	ror    $0x8,%ax
  402523:	66 89 44 24 22       	mov    %ax,0x22(%rsp)
  402528:	ba 10 00 00 00       	mov    $0x10,%edx
  40252d:	48 8d 74 24 20       	lea    0x20(%rsp),%rsi
  402532:	89 ef                	mov    %ebp,%edi
  402534:	e8 27 e9 ff ff       	callq  400e60 <connect@plt>
  402539:	85 c0                	test   %eax,%eax
  40253b:	79 59                	jns    402596 <submitr+0x1d4>
  40253d:	48 b8 45 72 72 6f 72 	movabs $0x55203a726f727245,%rax
  402544:	3a 20 55 
  402547:	48 89 03             	mov    %rax,(%rbx)
  40254a:	48 b8 6e 61 62 6c 65 	movabs $0x6f7420656c62616e,%rax
  402551:	20 74 6f 
  402554:	48 89 43 08          	mov    %rax,0x8(%rbx)
  402558:	48 b8 20 63 6f 6e 6e 	movabs $0x7463656e6e6f6320,%rax
  40255f:	65 63 74 
  402562:	48 89 43 10          	mov    %rax,0x10(%rbx)
  402566:	48 b8 20 74 6f 20 74 	movabs $0x20656874206f7420,%rax
  40256d:	68 65 20 
  402570:	48 89 43 18          	mov    %rax,0x18(%rbx)
  402574:	c7 43 20 73 65 72 76 	movl   $0x76726573,0x20(%rbx)
  40257b:	66 c7 43 24 65 72    	movw   $0x7265,0x24(%rbx)
  402581:	c6 43 26 00          	movb   $0x0,0x26(%rbx)
  402585:	89 ef                	mov    %ebp,%edi
  402587:	e8 a4 e7 ff ff       	callq  400d30 <close@plt>
  40258c:	b8 ff ff ff ff       	mov    $0xffffffff,%eax
  402591:	e9 72 05 00 00       	jmpq   402b08 <submitr+0x746>
  402596:	48 c7 c6 ff ff ff ff 	mov    $0xffffffffffffffff,%rsi
  40259d:	b8 00 00 00 00       	mov    $0x0,%eax
  4025a2:	48 89 f1             	mov    %rsi,%rcx
  4025a5:	4c 89 ef             	mov    %r13,%rdi
  4025a8:	f2 ae                	repnz scas %es:(%rdi),%al
  4025aa:	48 f7 d1             	not    %rcx
  4025ad:	48 89 ca             	mov    %rcx,%rdx
  4025b0:	48 89 f1             	mov    %rsi,%rcx
  4025b3:	4c 89 ff             	mov    %r15,%rdi
  4025b6:	f2 ae                	repnz scas %es:(%rdi),%al
  4025b8:	48 f7 d1             	not    %rcx
  4025bb:	49 89 c8             	mov    %rcx,%r8
  4025be:	48 89 f1             	mov    %rsi,%rcx
  4025c1:	4c 89 f7             	mov    %r14,%rdi
  4025c4:	f2 ae                	repnz scas %es:(%rdi),%al
  4025c6:	48 f7 d1             	not    %rcx
  4025c9:	4d 8d 44 08 fe       	lea    -0x2(%r8,%rcx,1),%r8
  4025ce:	48 89 f1             	mov    %rsi,%rcx
  4025d1:	48 8b 7c 24 08       	mov    0x8(%rsp),%rdi
  4025d6:	f2 ae                	repnz scas %es:(%rdi),%al
  4025d8:	48 89 c8             	mov    %rcx,%rax
  4025db:	48 f7 d0             	not    %rax
  4025de:	49 8d 4c 00 ff       	lea    -0x1(%r8,%rax,1),%rcx
  4025e3:	48 8d 44 52 fd       	lea    -0x3(%rdx,%rdx,2),%rax
  4025e8:	48 8d 84 01 80 00 00 	lea    0x80(%rcx,%rax,1),%rax
  4025ef:	00 
  4025f0:	48 3d 00 20 00 00    	cmp    $0x2000,%rax
  4025f6:	76 72                	jbe    40266a <submitr+0x2a8>
  4025f8:	48 b8 45 72 72 6f 72 	movabs $0x52203a726f727245,%rax
  4025ff:	3a 20 52 
  402602:	48 89 03             	mov    %rax,(%rbx)
  402605:	48 b8 65 73 75 6c 74 	movabs $0x747320746c757365,%rax
  40260c:	20 73 74 
  40260f:	48 89 43 08          	mov    %rax,0x8(%rbx)
  402613:	48 b8 72 69 6e 67 20 	movabs $0x6f6f7420676e6972,%rax
  40261a:	74 6f 6f 
  40261d:	48 89 43 10          	mov    %rax,0x10(%rbx)
  402621:	48 b8 20 6c 61 72 67 	movabs $0x202e656772616c20,%rax
  402628:	65 2e 20 
  40262b:	48 89 43 18          	mov    %rax,0x18(%rbx)
  40262f:	48 b8 49 6e 63 72 65 	movabs $0x6573616572636e49,%rax
  402636:	61 73 65 
  402639:	48 89 43 20          	mov    %rax,0x20(%rbx)
  40263d:	48 b8 20 53 55 42 4d 	movabs $0x5254494d42555320,%rax
  402644:	49 54 52 
  402647:	48 89 43 28          	mov    %rax,0x28(%rbx)
  40264b:	48 b8 5f 4d 41 58 42 	movabs $0x46554258414d5f,%rax
  402652:	55 46 00 
  402655:	48 89 43 30          	mov    %rax,0x30(%rbx)
  402659:	89 ef                	mov    %ebp,%edi
  40265b:	e8 d0 e6 ff ff       	callq  400d30 <close@plt>
  402660:	b8 ff ff ff ff       	mov    $0xffffffff,%eax
  402665:	e9 9e 04 00 00       	jmpq   402b08 <submitr+0x746>
  40266a:	48 8d b4 24 40 40 00 	lea    0x4040(%rsp),%rsi
  402671:	00 
  402672:	b9 00 04 00 00       	mov    $0x400,%ecx
  402677:	b8 00 00 00 00       	mov    $0x0,%eax
  40267c:	48 89 f7             	mov    %rsi,%rdi
  40267f:	f3 48 ab             	rep stos %rax,%es:(%rdi)
  402682:	4c 89 ef             	mov    %r13,%rdi
  402685:	e8 2b fc ff ff       	callq  4022b5 <urlencode>
  40268a:	85 c0                	test   %eax,%eax
  40268c:	0f 89 8a 00 00 00    	jns    40271c <submitr+0x35a>
  402692:	48 b8 45 72 72 6f 72 	movabs $0x52203a726f727245,%rax
  402699:	3a 20 52 
  40269c:	48 89 03             	mov    %rax,(%rbx)
  40269f:	48 b8 65 73 75 6c 74 	movabs $0x747320746c757365,%rax
  4026a6:	20 73 74 
  4026a9:	48 89 43 08          	mov    %rax,0x8(%rbx)
  4026ad:	48 b8 72 69 6e 67 20 	movabs $0x6e6f6320676e6972,%rax
  4026b4:	63 6f 6e 
  4026b7:	48 89 43 10          	mov    %rax,0x10(%rbx)
  4026bb:	48 b8 74 61 69 6e 73 	movabs $0x6e6120736e696174,%rax
  4026c2:	20 61 6e 
  4026c5:	48 89 43 18          	mov    %rax,0x18(%rbx)
  4026c9:	48 b8 20 69 6c 6c 65 	movabs $0x6c6167656c6c6920,%rax
  4026d0:	67 61 6c 
  4026d3:	48 89 43 20          	mov    %rax,0x20(%rbx)
  4026d7:	48 b8 20 6f 72 20 75 	movabs $0x72706e7520726f20,%rax
  4026de:	6e 70 72 
  4026e1:	48 89 43 28          	mov    %rax,0x28(%rbx)
  4026e5:	48 b8 69 6e 74 61 62 	movabs $0x20656c6261746e69,%rax
  4026ec:	6c 65 20 
  4026ef:	48 89 43 30          	mov    %rax,0x30(%rbx)
  4026f3:	48 b8 63 68 61 72 61 	movabs $0x6574636172616863,%rax
  4026fa:	63 74 65 
  4026fd:	48 89 43 38          	mov    %rax,0x38(%rbx)
  402701:	66 c7 43 40 72 2e    	movw   $0x2e72,0x40(%rbx)
  402707:	c6 43 42 00          	movb   $0x0,0x42(%rbx)
  40270b:	89 ef                	mov    %ebp,%edi
  40270d:	e8 1e e6 ff ff       	callq  400d30 <close@plt>
  402712:	b8 ff ff ff ff       	mov    $0xffffffff,%eax
  402717:	e9 ec 03 00 00       	jmpq   402b08 <submitr+0x746>
  40271c:	4c 8d ac 24 40 20 00 	lea    0x2040(%rsp),%r13
  402723:	00 
  402724:	41 54                	push   %r12
  402726:	48 8d 84 24 48 40 00 	lea    0x4048(%rsp),%rax
  40272d:	00 
  40272e:	50                   	push   %rax
  40272f:	4d 89 f9             	mov    %r15,%r9
  402732:	4d 89 f0             	mov    %r14,%r8
  402735:	b9 d8 35 40 00       	mov    $0x4035d8,%ecx
  40273a:	ba 00 20 00 00       	mov    $0x2000,%edx
  40273f:	be 01 00 00 00       	mov    $0x1,%esi
  402744:	4c 89 ef             	mov    %r13,%rdi
  402747:	b8 00 00 00 00       	mov    $0x0,%eax
  40274c:	e8 2f e7 ff ff       	callq  400e80 <__sprintf_chk@plt>
  402751:	b8 00 00 00 00       	mov    $0x0,%eax
  402756:	48 c7 c1 ff ff ff ff 	mov    $0xffffffffffffffff,%rcx
  40275d:	4c 89 ef             	mov    %r13,%rdi
  402760:	f2 ae                	repnz scas %es:(%rdi),%al
  402762:	48 f7 d1             	not    %rcx
  402765:	48 8d 51 ff          	lea    -0x1(%rcx),%rdx
  402769:	4c 89 ee             	mov    %r13,%rsi
  40276c:	89 ef                	mov    %ebp,%edi
  40276e:	e8 b1 f9 ff ff       	callq  402124 <rio_writen>
  402773:	48 83 c4 10          	add    $0x10,%rsp
  402777:	48 85 c0             	test   %rax,%rax
  40277a:	79 6e                	jns    4027ea <submitr+0x428>
  40277c:	48 b8 45 72 72 6f 72 	movabs $0x43203a726f727245,%rax
  402783:	3a 20 43 
  402786:	48 89 03             	mov    %rax,(%rbx)
  402789:	48 b8 6c 69 65 6e 74 	movabs $0x6e7520746e65696c,%rax
  402790:	20 75 6e 
  402793:	48 89 43 08          	mov    %rax,0x8(%rbx)
  402797:	48 b8 61 62 6c 65 20 	movabs $0x206f7420656c6261,%rax
  40279e:	74 6f 20 
  4027a1:	48 89 43 10          	mov    %rax,0x10(%rbx)
  4027a5:	48 b8 77 72 69 74 65 	movabs $0x6f74206574697277,%rax
  4027ac:	20 74 6f 
  4027af:	48 89 43 18          	mov    %rax,0x18(%rbx)
  4027b3:	48 b8 20 74 68 65 20 	movabs $0x7365722065687420,%rax
  4027ba:	72 65 73 
  4027bd:	48 89 43 20          	mov    %rax,0x20(%rbx)
  4027c1:	48 b8 75 6c 74 20 73 	movabs $0x7672657320746c75,%rax
  4027c8:	65 72 76 
  4027cb:	48 89 43 28          	mov    %rax,0x28(%rbx)
  4027cf:	66 c7 43 30 65 72    	movw   $0x7265,0x30(%rbx)
  4027d5:	c6 43 32 00          	movb   $0x0,0x32(%rbx)
  4027d9:	89 ef                	mov    %ebp,%edi
  4027db:	e8 50 e5 ff ff       	callq  400d30 <close@plt>
  4027e0:	b8 ff ff ff ff       	mov    $0xffffffff,%eax
  4027e5:	e9 1e 03 00 00       	jmpq   402b08 <submitr+0x746>
  4027ea:	89 ee                	mov    %ebp,%esi
  4027ec:	48 8d 7c 24 30       	lea    0x30(%rsp),%rdi
  4027f1:	e8 ee f8 ff ff       	callq  4020e4 <rio_readinitb>
  4027f6:	ba 00 20 00 00       	mov    $0x2000,%edx
  4027fb:	48 8d b4 24 40 20 00 	lea    0x2040(%rsp),%rsi
  402802:	00 
  402803:	48 8d 7c 24 30       	lea    0x30(%rsp),%rdi
  402808:	e8 fe f9 ff ff       	callq  40220b <rio_readlineb>
  40280d:	48 85 c0             	test   %rax,%rax
  402810:	7f 7d                	jg     40288f <submitr+0x4cd>
  402812:	48 b8 45 72 72 6f 72 	movabs $0x43203a726f727245,%rax
  402819:	3a 20 43 
  40281c:	48 89 03             	mov    %rax,(%rbx)
  40281f:	48 b8 6c 69 65 6e 74 	movabs $0x6e7520746e65696c,%rax
  402826:	20 75 6e 
  402829:	48 89 43 08          	mov    %rax,0x8(%rbx)
  40282d:	48 b8 61 62 6c 65 20 	movabs $0x206f7420656c6261,%rax
  402834:	74 6f 20 
  402837:	48 89 43 10          	mov    %rax,0x10(%rbx)
  40283b:	48 b8 72 65 61 64 20 	movabs $0x7269662064616572,%rax
  402842:	66 69 72 
  402845:	48 89 43 18          	mov    %rax,0x18(%rbx)
  402849:	48 b8 73 74 20 68 65 	movabs $0x6564616568207473,%rax
  402850:	61 64 65 
  402853:	48 89 43 20          	mov    %rax,0x20(%rbx)
  402857:	48 b8 72 20 66 72 6f 	movabs $0x72206d6f72662072,%rax
  40285e:	6d 20 72 
  402861:	48 89 43 28          	mov    %rax,0x28(%rbx)
  402865:	48 b8 65 73 75 6c 74 	movabs $0x657320746c757365,%rax
  40286c:	20 73 65 
  40286f:	48 89 43 30          	mov    %rax,0x30(%rbx)
  402873:	c7 43 38 72 76 65 72 	movl   $0x72657672,0x38(%rbx)
  40287a:	c6 43 3c 00          	movb   $0x0,0x3c(%rbx)
  40287e:	89 ef                	mov    %ebp,%edi
  402880:	e8 ab e4 ff ff       	callq  400d30 <close@plt>
  402885:	b8 ff ff ff ff       	mov    $0xffffffff,%eax
  40288a:	e9 79 02 00 00       	jmpq   402b08 <submitr+0x746>
  40288f:	4c 8d 84 24 40 80 00 	lea    0x8040(%rsp),%r8
  402896:	00 
  402897:	48 8d 4c 24 1c       	lea    0x1c(%rsp),%rcx
  40289c:	48 8d 94 24 40 60 00 	lea    0x6040(%rsp),%rdx
  4028a3:	00 
  4028a4:	be 4f 36 40 00       	mov    $0x40364f,%esi
  4028a9:	48 8d bc 24 40 20 00 	lea    0x2040(%rsp),%rdi
  4028b0:	00 
  4028b1:	b8 00 00 00 00       	mov    $0x0,%eax
  4028b6:	e8 25 e5 ff ff       	callq  400de0 <__isoc99_sscanf@plt>
  4028bb:	e9 95 00 00 00       	jmpq   402955 <submitr+0x593>
  4028c0:	ba 00 20 00 00       	mov    $0x2000,%edx
  4028c5:	48 8d b4 24 40 20 00 	lea    0x2040(%rsp),%rsi
  4028cc:	00 
  4028cd:	48 8d 7c 24 30       	lea    0x30(%rsp),%rdi
  4028d2:	e8 34 f9 ff ff       	callq  40220b <rio_readlineb>
  4028d7:	48 85 c0             	test   %rax,%rax
  4028da:	7f 79                	jg     402955 <submitr+0x593>
  4028dc:	48 b8 45 72 72 6f 72 	movabs $0x43203a726f727245,%rax
  4028e3:	3a 20 43 
  4028e6:	48 89 03             	mov    %rax,(%rbx)
  4028e9:	48 b8 6c 69 65 6e 74 	movabs $0x6e7520746e65696c,%rax
  4028f0:	20 75 6e 
  4028f3:	48 89 43 08          	mov    %rax,0x8(%rbx)
  4028f7:	48 b8 61 62 6c 65 20 	movabs $0x206f7420656c6261,%rax
  4028fe:	74 6f 20 
  402901:	48 89 43 10          	mov    %rax,0x10(%rbx)
  402905:	48 b8 72 65 61 64 20 	movabs $0x6165682064616572,%rax
  40290c:	68 65 61 
  40290f:	48 89 43 18          	mov    %rax,0x18(%rbx)
  402913:	48 b8 64 65 72 73 20 	movabs $0x6f72662073726564,%rax
  40291a:	66 72 6f 
  40291d:	48 89 43 20          	mov    %rax,0x20(%rbx)
  402921:	48 b8 6d 20 74 68 65 	movabs $0x657220656874206d,%rax
  402928:	20 72 65 
  40292b:	48 89 43 28          	mov    %rax,0x28(%rbx)
  40292f:	48 b8 73 75 6c 74 20 	movabs $0x72657320746c7573,%rax
  402936:	73 65 72 
  402939:	48 89 43 30          	mov    %rax,0x30(%rbx)
  40293d:	c7 43 38 76 65 72 00 	movl   $0x726576,0x38(%rbx)
  402944:	89 ef                	mov    %ebp,%edi
  402946:	e8 e5 e3 ff ff       	callq  400d30 <close@plt>
  40294b:	b8 ff ff ff ff       	mov    $0xffffffff,%eax
  402950:	e9 b3 01 00 00       	jmpq   402b08 <submitr+0x746>
  402955:	0f b6 94 24 40 20 00 	movzbl 0x2040(%rsp),%edx
  40295c:	00 
  40295d:	b8 0d 00 00 00       	mov    $0xd,%eax
  402962:	29 d0                	sub    %edx,%eax
  402964:	75 1b                	jne    402981 <submitr+0x5bf>
  402966:	0f b6 94 24 41 20 00 	movzbl 0x2041(%rsp),%edx
  40296d:	00 
  40296e:	b8 0a 00 00 00       	mov    $0xa,%eax
  402973:	29 d0                	sub    %edx,%eax
  402975:	75 0a                	jne    402981 <submitr+0x5bf>
  402977:	0f b6 84 24 42 20 00 	movzbl 0x2042(%rsp),%eax
  40297e:	00 
  40297f:	f7 d8                	neg    %eax
  402981:	85 c0                	test   %eax,%eax
  402983:	0f 85 37 ff ff ff    	jne    4028c0 <submitr+0x4fe>
  402989:	ba 00 20 00 00       	mov    $0x2000,%edx
  40298e:	48 8d b4 24 40 20 00 	lea    0x2040(%rsp),%rsi
  402995:	00 
  402996:	48 8d 7c 24 30       	lea    0x30(%rsp),%rdi
  40299b:	e8 6b f8 ff ff       	callq  40220b <rio_readlineb>
  4029a0:	48 85 c0             	test   %rax,%rax
  4029a3:	0f 8f 83 00 00 00    	jg     402a2c <submitr+0x66a>
  4029a9:	48 b8 45 72 72 6f 72 	movabs $0x43203a726f727245,%rax
  4029b0:	3a 20 43 
  4029b3:	48 89 03             	mov    %rax,(%rbx)
  4029b6:	48 b8 6c 69 65 6e 74 	movabs $0x6e7520746e65696c,%rax
  4029bd:	20 75 6e 
  4029c0:	48 89 43 08          	mov    %rax,0x8(%rbx)
  4029c4:	48 b8 61 62 6c 65 20 	movabs $0x206f7420656c6261,%rax
  4029cb:	74 6f 20 
  4029ce:	48 89 43 10          	mov    %rax,0x10(%rbx)
  4029d2:	48 b8 72 65 61 64 20 	movabs $0x6174732064616572,%rax
  4029d9:	73 74 61 
  4029dc:	48 89 43 18          	mov    %rax,0x18(%rbx)
  4029e0:	48 b8 74 75 73 20 6d 	movabs $0x7373656d20737574,%rax
  4029e7:	65 73 73 
  4029ea:	48 89 43 20          	mov    %rax,0x20(%rbx)
  4029ee:	48 b8 61 67 65 20 66 	movabs $0x6d6f726620656761,%rax
  4029f5:	72 6f 6d 
  4029f8:	48 89 43 28          	mov    %rax,0x28(%rbx)
  4029fc:	48 b8 20 72 65 73 75 	movabs $0x20746c7573657220,%rax
  402a03:	6c 74 20 
  402a06:	48 89 43 30          	mov    %rax,0x30(%rbx)
  402a0a:	c7 43 38 73 65 72 76 	movl   $0x76726573,0x38(%rbx)
  402a11:	66 c7 43 3c 65 72    	movw   $0x7265,0x3c(%rbx)
  402a17:	c6 43 3e 00          	movb   $0x0,0x3e(%rbx)
  402a1b:	89 ef                	mov    %ebp,%edi
  402a1d:	e8 0e e3 ff ff       	callq  400d30 <close@plt>
  402a22:	b8 ff ff ff ff       	mov    $0xffffffff,%eax
  402a27:	e9 dc 00 00 00       	jmpq   402b08 <submitr+0x746>
  402a2c:	44 8b 44 24 1c       	mov    0x1c(%rsp),%r8d
  402a31:	41 81 f8 c8 00 00 00 	cmp    $0xc8,%r8d
  402a38:	74 37                	je     402a71 <submitr+0x6af>
  402a3a:	4c 8d 8c 24 40 80 00 	lea    0x8040(%rsp),%r9
  402a41:	00 
  402a42:	b9 18 36 40 00       	mov    $0x403618,%ecx
  402a47:	48 c7 c2 ff ff ff ff 	mov    $0xffffffffffffffff,%rdx
  402a4e:	be 01 00 00 00       	mov    $0x1,%esi
  402a53:	48 89 df             	mov    %rbx,%rdi
  402a56:	b8 00 00 00 00       	mov    $0x0,%eax
  402a5b:	e8 20 e4 ff ff       	callq  400e80 <__sprintf_chk@plt>
  402a60:	89 ef                	mov    %ebp,%edi
  402a62:	e8 c9 e2 ff ff       	callq  400d30 <close@plt>
  402a67:	b8 ff ff ff ff       	mov    $0xffffffff,%eax
  402a6c:	e9 97 00 00 00       	jmpq   402b08 <submitr+0x746>
  402a71:	48 8d b4 24 40 20 00 	lea    0x2040(%rsp),%rsi
  402a78:	00 
  402a79:	48 89 df             	mov    %rbx,%rdi
  402a7c:	e8 3f e2 ff ff       	callq  400cc0 <strcpy@plt>
  402a81:	89 ef                	mov    %ebp,%edi
  402a83:	e8 a8 e2 ff ff       	callq  400d30 <close@plt>
  402a88:	0f b6 03             	movzbl (%rbx),%eax
  402a8b:	ba 4f 00 00 00       	mov    $0x4f,%edx
  402a90:	29 c2                	sub    %eax,%edx
  402a92:	75 22                	jne    402ab6 <submitr+0x6f4>
  402a94:	0f b6 4b 01          	movzbl 0x1(%rbx),%ecx
  402a98:	b8 4b 00 00 00       	mov    $0x4b,%eax
  402a9d:	29 c8                	sub    %ecx,%eax
  402a9f:	75 17                	jne    402ab8 <submitr+0x6f6>
  402aa1:	0f b6 4b 02          	movzbl 0x2(%rbx),%ecx
  402aa5:	b8 0a 00 00 00       	mov    $0xa,%eax
  402aaa:	29 c8                	sub    %ecx,%eax
  402aac:	75 0a                	jne    402ab8 <submitr+0x6f6>
  402aae:	0f b6 43 03          	movzbl 0x3(%rbx),%eax
  402ab2:	f7 d8                	neg    %eax
  402ab4:	eb 02                	jmp    402ab8 <submitr+0x6f6>
  402ab6:	89 d0                	mov    %edx,%eax
  402ab8:	85 c0                	test   %eax,%eax
  402aba:	74 40                	je     402afc <submitr+0x73a>
  402abc:	bf 60 36 40 00       	mov    $0x403660,%edi
  402ac1:	b9 05 00 00 00       	mov    $0x5,%ecx
  402ac6:	48 89 de             	mov    %rbx,%rsi
  402ac9:	f3 a6                	repz cmpsb %es:(%rdi),%ds:(%rsi)
  402acb:	0f 97 c0             	seta   %al
  402ace:	0f 92 c1             	setb   %cl
  402ad1:	29 c8                	sub    %ecx,%eax
  402ad3:	0f be c0             	movsbl %al,%eax
  402ad6:	85 c0                	test   %eax,%eax
  402ad8:	74 2e                	je     402b08 <submitr+0x746>
  402ada:	85 d2                	test   %edx,%edx
  402adc:	75 13                	jne    402af1 <submitr+0x72f>
  402ade:	0f b6 43 01          	movzbl 0x1(%rbx),%eax
  402ae2:	ba 4b 00 00 00       	mov    $0x4b,%edx
  402ae7:	29 c2                	sub    %eax,%edx
  402ae9:	75 06                	jne    402af1 <submitr+0x72f>
  402aeb:	0f b6 53 02          	movzbl 0x2(%rbx),%edx
  402aef:	f7 da                	neg    %edx
  402af1:	85 d2                	test   %edx,%edx
  402af3:	75 0e                	jne    402b03 <submitr+0x741>
  402af5:	b8 00 00 00 00       	mov    $0x0,%eax
  402afa:	eb 0c                	jmp    402b08 <submitr+0x746>
  402afc:	b8 00 00 00 00       	mov    $0x0,%eax
  402b01:	eb 05                	jmp    402b08 <submitr+0x746>
  402b03:	b8 ff ff ff ff       	mov    $0xffffffff,%eax
  402b08:	48 8b 9c 24 48 a0 00 	mov    0xa048(%rsp),%rbx
  402b0f:	00 
  402b10:	64 48 33 1c 25 28 00 	xor    %fs:0x28,%rbx
  402b17:	00 00 
  402b19:	74 05                	je     402b20 <submitr+0x75e>
  402b1b:	e8 d0 e1 ff ff       	callq  400cf0 <__stack_chk_fail@plt>
  402b20:	48 81 c4 58 a0 00 00 	add    $0xa058,%rsp
  402b27:	5b                   	pop    %rbx
  402b28:	5d                   	pop    %rbp
  402b29:	41 5c                	pop    %r12
  402b2b:	41 5d                	pop    %r13
  402b2d:	41 5e                	pop    %r14
  402b2f:	41 5f                	pop    %r15
  402b31:	c3                   	retq   

0000000000402b32 <init_timeout>:
  402b32:	85 ff                	test   %edi,%edi
  402b34:	74 23                	je     402b59 <init_timeout+0x27>
  402b36:	53                   	push   %rbx
  402b37:	89 fb                	mov    %edi,%ebx
  402b39:	85 ff                	test   %edi,%edi
  402b3b:	79 05                	jns    402b42 <init_timeout+0x10>
  402b3d:	bb 00 00 00 00       	mov    $0x0,%ebx
  402b42:	be f6 20 40 00       	mov    $0x4020f6,%esi
  402b47:	bf 0e 00 00 00       	mov    $0xe,%edi
  402b4c:	e8 0f e2 ff ff       	callq  400d60 <signal@plt>
  402b51:	89 df                	mov    %ebx,%edi
  402b53:	e8 c8 e1 ff ff       	callq  400d20 <alarm@plt>
  402b58:	5b                   	pop    %rbx
  402b59:	f3 c3                	repz retq 

0000000000402b5b <init_driver>:
  402b5b:	55                   	push   %rbp
  402b5c:	53                   	push   %rbx
  402b5d:	48 83 ec 28          	sub    $0x28,%rsp
  402b61:	48 89 fd             	mov    %rdi,%rbp
  402b64:	64 48 8b 04 25 28 00 	mov    %fs:0x28,%rax
  402b6b:	00 00 
  402b6d:	48 89 44 24 18       	mov    %rax,0x18(%rsp)
  402b72:	31 c0                	xor    %eax,%eax
  402b74:	be 01 00 00 00       	mov    $0x1,%esi
  402b79:	bf 0d 00 00 00       	mov    $0xd,%edi
  402b7e:	e8 dd e1 ff ff       	callq  400d60 <signal@plt>
  402b83:	be 01 00 00 00       	mov    $0x1,%esi
  402b88:	bf 1d 00 00 00       	mov    $0x1d,%edi
  402b8d:	e8 ce e1 ff ff       	callq  400d60 <signal@plt>
  402b92:	be 01 00 00 00       	mov    $0x1,%esi
  402b97:	bf 1d 00 00 00       	mov    $0x1d,%edi
  402b9c:	e8 bf e1 ff ff       	callq  400d60 <signal@plt>
  402ba1:	ba 00 00 00 00       	mov    $0x0,%edx
  402ba6:	be 01 00 00 00       	mov    $0x1,%esi
  402bab:	bf 02 00 00 00       	mov    $0x2,%edi
  402bb0:	e8 db e2 ff ff       	callq  400e90 <socket@plt>
  402bb5:	85 c0                	test   %eax,%eax
  402bb7:	79 4f                	jns    402c08 <init_driver+0xad>
  402bb9:	48 b8 45 72 72 6f 72 	movabs $0x43203a726f727245,%rax
  402bc0:	3a 20 43 
  402bc3:	48 89 45 00          	mov    %rax,0x0(%rbp)
  402bc7:	48 b8 6c 69 65 6e 74 	movabs $0x6e7520746e65696c,%rax
  402bce:	20 75 6e 
  402bd1:	48 89 45 08          	mov    %rax,0x8(%rbp)
  402bd5:	48 b8 61 62 6c 65 20 	movabs $0x206f7420656c6261,%rax
  402bdc:	74 6f 20 
  402bdf:	48 89 45 10          	mov    %rax,0x10(%rbp)
  402be3:	48 b8 63 72 65 61 74 	movabs $0x7320657461657263,%rax
  402bea:	65 20 73 
  402bed:	48 89 45 18          	mov    %rax,0x18(%rbp)
  402bf1:	c7 45 20 6f 63 6b 65 	movl   $0x656b636f,0x20(%rbp)
  402bf8:	66 c7 45 24 74 00    	movw   $0x74,0x24(%rbp)
  402bfe:	b8 ff ff ff ff       	mov    $0xffffffff,%eax
  402c03:	e9 2a 01 00 00       	jmpq   402d32 <init_driver+0x1d7>
  402c08:	89 c3                	mov    %eax,%ebx
  402c0a:	bf 65 36 40 00       	mov    $0x403665,%edi
  402c0f:	e8 5c e1 ff ff       	callq  400d70 <gethostbyname@plt>
  402c14:	48 85 c0             	test   %rax,%rax
  402c17:	75 68                	jne    402c81 <init_driver+0x126>
  402c19:	48 b8 45 72 72 6f 72 	movabs $0x44203a726f727245,%rax
  402c20:	3a 20 44 
  402c23:	48 89 45 00          	mov    %rax,0x0(%rbp)
  402c27:	48 b8 4e 53 20 69 73 	movabs $0x6e7520736920534e,%rax
  402c2e:	20 75 6e 
  402c31:	48 89 45 08          	mov    %rax,0x8(%rbp)
  402c35:	48 b8 61 62 6c 65 20 	movabs $0x206f7420656c6261,%rax
  402c3c:	74 6f 20 
  402c3f:	48 89 45 10          	mov    %rax,0x10(%rbp)
  402c43:	48 b8 72 65 73 6f 6c 	movabs $0x2065766c6f736572,%rax
  402c4a:	76 65 20 
  402c4d:	48 89 45 18          	mov    %rax,0x18(%rbp)
  402c51:	48 b8 73 65 72 76 65 	movabs $0x6120726576726573,%rax
  402c58:	72 20 61 
  402c5b:	48 89 45 20          	mov    %rax,0x20(%rbp)
  402c5f:	c7 45 28 64 64 72 65 	movl   $0x65726464,0x28(%rbp)
  402c66:	66 c7 45 2c 73 73    	movw   $0x7373,0x2c(%rbp)
  402c6c:	c6 45 2e 00          	movb   $0x0,0x2e(%rbp)
  402c70:	89 df                	mov    %ebx,%edi
  402c72:	e8 b9 e0 ff ff       	callq  400d30 <close@plt>
  402c77:	b8 ff ff ff ff       	mov    $0xffffffff,%eax
  402c7c:	e9 b1 00 00 00       	jmpq   402d32 <init_driver+0x1d7>
  402c81:	48 c7 04 24 00 00 00 	movq   $0x0,(%rsp)
  402c88:	00 
  402c89:	48 c7 44 24 08 00 00 	movq   $0x0,0x8(%rsp)
  402c90:	00 00 
  402c92:	66 c7 04 24 02 00    	movw   $0x2,(%rsp)
  402c98:	48 63 50 14          	movslq 0x14(%rax),%rdx
  402c9c:	48 8b 40 18          	mov    0x18(%rax),%rax
  402ca0:	48 8b 30             	mov    (%rax),%rsi
  402ca3:	48 8d 7c 24 04       	lea    0x4(%rsp),%rdi
  402ca8:	b9 0c 00 00 00       	mov    $0xc,%ecx
  402cad:	e8 ce e0 ff ff       	callq  400d80 <__memmove_chk@plt>
  402cb2:	66 c7 44 24 02 3c 9a 	movw   $0x9a3c,0x2(%rsp)
  402cb9:	ba 10 00 00 00       	mov    $0x10,%edx
  402cbe:	48 89 e6             	mov    %rsp,%rsi
  402cc1:	89 df                	mov    %ebx,%edi
  402cc3:	e8 98 e1 ff ff       	callq  400e60 <connect@plt>
  402cc8:	85 c0                	test   %eax,%eax
  402cca:	79 50                	jns    402d1c <init_driver+0x1c1>
  402ccc:	48 b8 45 72 72 6f 72 	movabs $0x55203a726f727245,%rax
  402cd3:	3a 20 55 
  402cd6:	48 89 45 00          	mov    %rax,0x0(%rbp)
  402cda:	48 b8 6e 61 62 6c 65 	movabs $0x6f7420656c62616e,%rax
  402ce1:	20 74 6f 
  402ce4:	48 89 45 08          	mov    %rax,0x8(%rbp)
  402ce8:	48 b8 20 63 6f 6e 6e 	movabs $0x7463656e6e6f6320,%rax
  402cef:	65 63 74 
  402cf2:	48 89 45 10          	mov    %rax,0x10(%rbp)
  402cf6:	48 b8 20 74 6f 20 73 	movabs $0x76726573206f7420,%rax
  402cfd:	65 72 76 
  402d00:	48 89 45 18          	mov    %rax,0x18(%rbp)
  402d04:	66 c7 45 20 65 72    	movw   $0x7265,0x20(%rbp)
  402d0a:	c6 45 22 00          	movb   $0x0,0x22(%rbp)
  402d0e:	89 df                	mov    %ebx,%edi
  402d10:	e8 1b e0 ff ff       	callq  400d30 <close@plt>
  402d15:	b8 ff ff ff ff       	mov    $0xffffffff,%eax
  402d1a:	eb 16                	jmp    402d32 <init_driver+0x1d7>
  402d1c:	89 df                	mov    %ebx,%edi
  402d1e:	e8 0d e0 ff ff       	callq  400d30 <close@plt>
  402d23:	66 c7 45 00 4f 4b    	movw   $0x4b4f,0x0(%rbp)
  402d29:	c6 45 02 00          	movb   $0x0,0x2(%rbp)
  402d2d:	b8 00 00 00 00       	mov    $0x0,%eax
  402d32:	48 8b 4c 24 18       	mov    0x18(%rsp),%rcx
  402d37:	64 48 33 0c 25 28 00 	xor    %fs:0x28,%rcx
  402d3e:	00 00 
  402d40:	74 05                	je     402d47 <init_driver+0x1ec>
  402d42:	e8 a9 df ff ff       	callq  400cf0 <__stack_chk_fail@plt>
  402d47:	48 83 c4 28          	add    $0x28,%rsp
  402d4b:	5b                   	pop    %rbx
  402d4c:	5d                   	pop    %rbp
  402d4d:	c3                   	retq   

0000000000402d4e <driver_post>:
  402d4e:	53                   	push   %rbx
  402d4f:	4c 89 cb             	mov    %r9,%rbx
  402d52:	45 85 c0             	test   %r8d,%r8d
  402d55:	74 27                	je     402d7e <driver_post+0x30>
  402d57:	48 89 ca             	mov    %rcx,%rdx
  402d5a:	be 79 36 40 00       	mov    $0x403679,%esi
  402d5f:	bf 01 00 00 00       	mov    $0x1,%edi
  402d64:	b8 00 00 00 00       	mov    $0x0,%eax
  402d69:	e8 92 e0 ff ff       	callq  400e00 <__printf_chk@plt>
  402d6e:	66 c7 03 4f 4b       	movw   $0x4b4f,(%rbx)
  402d73:	c6 43 02 00          	movb   $0x0,0x2(%rbx)
  402d77:	b8 00 00 00 00       	mov    $0x0,%eax
  402d7c:	eb 3f                	jmp    402dbd <driver_post+0x6f>
  402d7e:	48 85 ff             	test   %rdi,%rdi
  402d81:	74 2c                	je     402daf <driver_post+0x61>
  402d83:	80 3f 00             	cmpb   $0x0,(%rdi)
  402d86:	74 27                	je     402daf <driver_post+0x61>
  402d88:	48 83 ec 08          	sub    $0x8,%rsp
  402d8c:	41 51                	push   %r9
  402d8e:	49 89 c9             	mov    %rcx,%r9
  402d91:	49 89 d0             	mov    %rdx,%r8
  402d94:	48 89 f9             	mov    %rdi,%rcx
  402d97:	48 89 f2             	mov    %rsi,%rdx
  402d9a:	be 9a 3c 00 00       	mov    $0x3c9a,%esi
  402d9f:	bf 65 36 40 00       	mov    $0x403665,%edi
  402da4:	e8 19 f6 ff ff       	callq  4023c2 <submitr>
  402da9:	48 83 c4 10          	add    $0x10,%rsp
  402dad:	eb 0e                	jmp    402dbd <driver_post+0x6f>
  402daf:	66 c7 03 4f 4b       	movw   $0x4b4f,(%rbx)
  402db4:	c6 43 02 00          	movb   $0x0,0x2(%rbx)
  402db8:	b8 00 00 00 00       	mov    $0x0,%eax
  402dbd:	5b                   	pop    %rbx
  402dbe:	c3                   	retq   

0000000000402dbf <check>:
  402dbf:	89 f8                	mov    %edi,%eax
  402dc1:	c1 e8 1c             	shr    $0x1c,%eax
  402dc4:	85 c0                	test   %eax,%eax
  402dc6:	74 1d                	je     402de5 <check+0x26>
  402dc8:	b9 00 00 00 00       	mov    $0x0,%ecx
  402dcd:	eb 0b                	jmp    402dda <check+0x1b>
  402dcf:	89 f8                	mov    %edi,%eax
  402dd1:	d3 e8                	shr    %cl,%eax
  402dd3:	3c 0a                	cmp    $0xa,%al
  402dd5:	74 14                	je     402deb <check+0x2c>
  402dd7:	83 c1 08             	add    $0x8,%ecx
  402dda:	83 f9 1f             	cmp    $0x1f,%ecx
  402ddd:	7e f0                	jle    402dcf <check+0x10>
  402ddf:	b8 01 00 00 00       	mov    $0x1,%eax
  402de4:	c3                   	retq   
  402de5:	b8 00 00 00 00       	mov    $0x0,%eax
  402dea:	c3                   	retq   
  402deb:	b8 00 00 00 00       	mov    $0x0,%eax
  402df0:	c3                   	retq   

0000000000402df1 <gencookie>:
  402df1:	53                   	push   %rbx
  402df2:	83 c7 01             	add    $0x1,%edi
  402df5:	e8 a6 de ff ff       	callq  400ca0 <srandom@plt>
  402dfa:	e8 c1 df ff ff       	callq  400dc0 <random@plt>
  402dff:	89 c3                	mov    %eax,%ebx
  402e01:	89 c7                	mov    %eax,%edi
  402e03:	e8 b7 ff ff ff       	callq  402dbf <check>
  402e08:	85 c0                	test   %eax,%eax
  402e0a:	74 ee                	je     402dfa <gencookie+0x9>
  402e0c:	89 d8                	mov    %ebx,%eax
  402e0e:	5b                   	pop    %rbx
  402e0f:	c3                   	retq   

0000000000402e10 <__libc_csu_init>:
  402e10:	41 57                	push   %r15
  402e12:	41 56                	push   %r14
  402e14:	41 89 ff             	mov    %edi,%r15d
  402e17:	41 55                	push   %r13
  402e19:	41 54                	push   %r12
  402e1b:	4c 8d 25 ee 0f 20 00 	lea    0x200fee(%rip),%r12        # 603e10 <__frame_dummy_init_array_entry>
  402e22:	55                   	push   %rbp
  402e23:	48 8d 2d ee 0f 20 00 	lea    0x200fee(%rip),%rbp        # 603e18 <__init_array_end>
  402e2a:	53                   	push   %rbx
  402e2b:	49 89 f6             	mov    %rsi,%r14
  402e2e:	49 89 d5             	mov    %rdx,%r13
  402e31:	4c 29 e5             	sub    %r12,%rbp
  402e34:	48 83 ec 08          	sub    $0x8,%rsp
  402e38:	48 c1 fd 03          	sar    $0x3,%rbp
  402e3c:	e8 07 de ff ff       	callq  400c48 <_init>
  402e41:	48 85 ed             	test   %rbp,%rbp
  402e44:	74 20                	je     402e66 <__libc_csu_init+0x56>
  402e46:	31 db                	xor    %ebx,%ebx
  402e48:	0f 1f 84 00 00 00 00 	nopl   0x0(%rax,%rax,1)
  402e4f:	00 
  402e50:	4c 89 ea             	mov    %r13,%rdx
  402e53:	4c 89 f6             	mov    %r14,%rsi
  402e56:	44 89 ff             	mov    %r15d,%edi
  402e59:	41 ff 14 dc          	callq  *(%r12,%rbx,8)
  402e5d:	48 83 c3 01          	add    $0x1,%rbx
  402e61:	48 39 eb             	cmp    %rbp,%rbx
  402e64:	75 ea                	jne    402e50 <__libc_csu_init+0x40>
  402e66:	48 83 c4 08          	add    $0x8,%rsp
  402e6a:	5b                   	pop    %rbx
  402e6b:	5d                   	pop    %rbp
  402e6c:	41 5c                	pop    %r12
  402e6e:	41 5d                	pop    %r13
  402e70:	41 5e                	pop    %r14
  402e72:	41 5f                	pop    %r15
  402e74:	c3                   	retq   
  402e75:	90                   	nop
  402e76:	66 2e 0f 1f 84 00 00 	nopw   %cs:0x0(%rax,%rax,1)
  402e7d:	00 00 00 

0000000000402e80 <__libc_csu_fini>:
  402e80:	f3 c3                	repz retq 

Disassembly of section .fini:

0000000000402e84 <_fini>:
  402e84:	48 83 ec 08          	sub    $0x8,%rsp
  402e88:	48 83 c4 08          	add    $0x8,%rsp
  402e8c:	c3                   	retq   
