
rtarget:     file format elf64-x86-64


Disassembly of section .init:

0000000000400c48 <_init>:
  400c48:	48 83 ec 08          	sub    $0x8,%rsp
  400c4c:	48 8b 05 a5 43 20 00 	mov    0x2043a5(%rip),%rax        # 604ff8 <_DYNAMIC+0x1d0>
  400c53:	48 85 c0             	test   %rax,%rax
  400c56:	74 05                	je     400c5d <_init+0x15>
  400c58:	e8 43 02 00 00       	callq  400ea0 <socket@plt+0x10>
  400c5d:	48 83 c4 08          	add    $0x8,%rsp
  400c61:	c3                   	retq   

Disassembly of section .plt:

0000000000400c70 <strcasecmp@plt-0x10>:
  400c70:	ff 35 92 43 20 00    	pushq  0x204392(%rip)        # 605008 <_GLOBAL_OFFSET_TABLE_+0x8>
  400c76:	ff 25 94 43 20 00    	jmpq   *0x204394(%rip)        # 605010 <_GLOBAL_OFFSET_TABLE_+0x10>
  400c7c:	0f 1f 40 00          	nopl   0x0(%rax)

0000000000400c80 <strcasecmp@plt>:
  400c80:	ff 25 92 43 20 00    	jmpq   *0x204392(%rip)        # 605018 <_GLOBAL_OFFSET_TABLE_+0x18>
  400c86:	68 00 00 00 00       	pushq  $0x0
  400c8b:	e9 e0 ff ff ff       	jmpq   400c70 <_init+0x28>

0000000000400c90 <__errno_location@plt>:
  400c90:	ff 25 8a 43 20 00    	jmpq   *0x20438a(%rip)        # 605020 <_GLOBAL_OFFSET_TABLE_+0x20>
  400c96:	68 01 00 00 00       	pushq  $0x1
  400c9b:	e9 d0 ff ff ff       	jmpq   400c70 <_init+0x28>

0000000000400ca0 <srandom@plt>:
  400ca0:	ff 25 82 43 20 00    	jmpq   *0x204382(%rip)        # 605028 <_GLOBAL_OFFSET_TABLE_+0x28>
  400ca6:	68 02 00 00 00       	pushq  $0x2
  400cab:	e9 c0 ff ff ff       	jmpq   400c70 <_init+0x28>

0000000000400cb0 <strncmp@plt>:
  400cb0:	ff 25 7a 43 20 00    	jmpq   *0x20437a(%rip)        # 605030 <_GLOBAL_OFFSET_TABLE_+0x30>
  400cb6:	68 03 00 00 00       	pushq  $0x3
  400cbb:	e9 b0 ff ff ff       	jmpq   400c70 <_init+0x28>

0000000000400cc0 <strcpy@plt>:
  400cc0:	ff 25 72 43 20 00    	jmpq   *0x204372(%rip)        # 605038 <_GLOBAL_OFFSET_TABLE_+0x38>
  400cc6:	68 04 00 00 00       	pushq  $0x4
  400ccb:	e9 a0 ff ff ff       	jmpq   400c70 <_init+0x28>

0000000000400cd0 <puts@plt>:
  400cd0:	ff 25 6a 43 20 00    	jmpq   *0x20436a(%rip)        # 605040 <_GLOBAL_OFFSET_TABLE_+0x40>
  400cd6:	68 05 00 00 00       	pushq  $0x5
  400cdb:	e9 90 ff ff ff       	jmpq   400c70 <_init+0x28>

0000000000400ce0 <write@plt>:
  400ce0:	ff 25 62 43 20 00    	jmpq   *0x204362(%rip)        # 605048 <_GLOBAL_OFFSET_TABLE_+0x48>
  400ce6:	68 06 00 00 00       	pushq  $0x6
  400ceb:	e9 80 ff ff ff       	jmpq   400c70 <_init+0x28>

0000000000400cf0 <__stack_chk_fail@plt>:
  400cf0:	ff 25 5a 43 20 00    	jmpq   *0x20435a(%rip)        # 605050 <_GLOBAL_OFFSET_TABLE_+0x50>
  400cf6:	68 07 00 00 00       	pushq  $0x7
  400cfb:	e9 70 ff ff ff       	jmpq   400c70 <_init+0x28>

0000000000400d00 <mmap@plt>:
  400d00:	ff 25 52 43 20 00    	jmpq   *0x204352(%rip)        # 605058 <_GLOBAL_OFFSET_TABLE_+0x58>
  400d06:	68 08 00 00 00       	pushq  $0x8
  400d0b:	e9 60 ff ff ff       	jmpq   400c70 <_init+0x28>

0000000000400d10 <memset@plt>:
  400d10:	ff 25 4a 43 20 00    	jmpq   *0x20434a(%rip)        # 605060 <_GLOBAL_OFFSET_TABLE_+0x60>
  400d16:	68 09 00 00 00       	pushq  $0x9
  400d1b:	e9 50 ff ff ff       	jmpq   400c70 <_init+0x28>

0000000000400d20 <alarm@plt>:
  400d20:	ff 25 42 43 20 00    	jmpq   *0x204342(%rip)        # 605068 <_GLOBAL_OFFSET_TABLE_+0x68>
  400d26:	68 0a 00 00 00       	pushq  $0xa
  400d2b:	e9 40 ff ff ff       	jmpq   400c70 <_init+0x28>

0000000000400d30 <close@plt>:
  400d30:	ff 25 3a 43 20 00    	jmpq   *0x20433a(%rip)        # 605070 <_GLOBAL_OFFSET_TABLE_+0x70>
  400d36:	68 0b 00 00 00       	pushq  $0xb
  400d3b:	e9 30 ff ff ff       	jmpq   400c70 <_init+0x28>

0000000000400d40 <read@plt>:
  400d40:	ff 25 32 43 20 00    	jmpq   *0x204332(%rip)        # 605078 <_GLOBAL_OFFSET_TABLE_+0x78>
  400d46:	68 0c 00 00 00       	pushq  $0xc
  400d4b:	e9 20 ff ff ff       	jmpq   400c70 <_init+0x28>

0000000000400d50 <__libc_start_main@plt>:
  400d50:	ff 25 2a 43 20 00    	jmpq   *0x20432a(%rip)        # 605080 <_GLOBAL_OFFSET_TABLE_+0x80>
  400d56:	68 0d 00 00 00       	pushq  $0xd
  400d5b:	e9 10 ff ff ff       	jmpq   400c70 <_init+0x28>

0000000000400d60 <signal@plt>:
  400d60:	ff 25 22 43 20 00    	jmpq   *0x204322(%rip)        # 605088 <_GLOBAL_OFFSET_TABLE_+0x88>
  400d66:	68 0e 00 00 00       	pushq  $0xe
  400d6b:	e9 00 ff ff ff       	jmpq   400c70 <_init+0x28>

0000000000400d70 <gethostbyname@plt>:
  400d70:	ff 25 1a 43 20 00    	jmpq   *0x20431a(%rip)        # 605090 <_GLOBAL_OFFSET_TABLE_+0x90>
  400d76:	68 0f 00 00 00       	pushq  $0xf
  400d7b:	e9 f0 fe ff ff       	jmpq   400c70 <_init+0x28>

0000000000400d80 <__memmove_chk@plt>:
  400d80:	ff 25 12 43 20 00    	jmpq   *0x204312(%rip)        # 605098 <_GLOBAL_OFFSET_TABLE_+0x98>
  400d86:	68 10 00 00 00       	pushq  $0x10
  400d8b:	e9 e0 fe ff ff       	jmpq   400c70 <_init+0x28>

0000000000400d90 <strtol@plt>:
  400d90:	ff 25 0a 43 20 00    	jmpq   *0x20430a(%rip)        # 6050a0 <_GLOBAL_OFFSET_TABLE_+0xa0>
  400d96:	68 11 00 00 00       	pushq  $0x11
  400d9b:	e9 d0 fe ff ff       	jmpq   400c70 <_init+0x28>

0000000000400da0 <memcpy@plt>:
  400da0:	ff 25 02 43 20 00    	jmpq   *0x204302(%rip)        # 6050a8 <_GLOBAL_OFFSET_TABLE_+0xa8>
  400da6:	68 12 00 00 00       	pushq  $0x12
  400dab:	e9 c0 fe ff ff       	jmpq   400c70 <_init+0x28>

0000000000400db0 <time@plt>:
  400db0:	ff 25 fa 42 20 00    	jmpq   *0x2042fa(%rip)        # 6050b0 <_GLOBAL_OFFSET_TABLE_+0xb0>
  400db6:	68 13 00 00 00       	pushq  $0x13
  400dbb:	e9 b0 fe ff ff       	jmpq   400c70 <_init+0x28>

0000000000400dc0 <random@plt>:
  400dc0:	ff 25 f2 42 20 00    	jmpq   *0x2042f2(%rip)        # 6050b8 <_GLOBAL_OFFSET_TABLE_+0xb8>
  400dc6:	68 14 00 00 00       	pushq  $0x14
  400dcb:	e9 a0 fe ff ff       	jmpq   400c70 <_init+0x28>

0000000000400dd0 <_IO_getc@plt>:
  400dd0:	ff 25 ea 42 20 00    	jmpq   *0x2042ea(%rip)        # 6050c0 <_GLOBAL_OFFSET_TABLE_+0xc0>
  400dd6:	68 15 00 00 00       	pushq  $0x15
  400ddb:	e9 90 fe ff ff       	jmpq   400c70 <_init+0x28>

0000000000400de0 <__isoc99_sscanf@plt>:
  400de0:	ff 25 e2 42 20 00    	jmpq   *0x2042e2(%rip)        # 6050c8 <_GLOBAL_OFFSET_TABLE_+0xc8>
  400de6:	68 16 00 00 00       	pushq  $0x16
  400deb:	e9 80 fe ff ff       	jmpq   400c70 <_init+0x28>

0000000000400df0 <munmap@plt>:
  400df0:	ff 25 da 42 20 00    	jmpq   *0x2042da(%rip)        # 6050d0 <_GLOBAL_OFFSET_TABLE_+0xd0>
  400df6:	68 17 00 00 00       	pushq  $0x17
  400dfb:	e9 70 fe ff ff       	jmpq   400c70 <_init+0x28>

0000000000400e00 <__printf_chk@plt>:
  400e00:	ff 25 d2 42 20 00    	jmpq   *0x2042d2(%rip)        # 6050d8 <_GLOBAL_OFFSET_TABLE_+0xd8>
  400e06:	68 18 00 00 00       	pushq  $0x18
  400e0b:	e9 60 fe ff ff       	jmpq   400c70 <_init+0x28>

0000000000400e10 <fopen@plt>:
  400e10:	ff 25 ca 42 20 00    	jmpq   *0x2042ca(%rip)        # 6050e0 <_GLOBAL_OFFSET_TABLE_+0xe0>
  400e16:	68 19 00 00 00       	pushq  $0x19
  400e1b:	e9 50 fe ff ff       	jmpq   400c70 <_init+0x28>

0000000000400e20 <getopt@plt>:
  400e20:	ff 25 c2 42 20 00    	jmpq   *0x2042c2(%rip)        # 6050e8 <_GLOBAL_OFFSET_TABLE_+0xe8>
  400e26:	68 1a 00 00 00       	pushq  $0x1a
  400e2b:	e9 40 fe ff ff       	jmpq   400c70 <_init+0x28>

0000000000400e30 <strtoul@plt>:
  400e30:	ff 25 ba 42 20 00    	jmpq   *0x2042ba(%rip)        # 6050f0 <_GLOBAL_OFFSET_TABLE_+0xf0>
  400e36:	68 1b 00 00 00       	pushq  $0x1b
  400e3b:	e9 30 fe ff ff       	jmpq   400c70 <_init+0x28>

0000000000400e40 <gethostname@plt>:
  400e40:	ff 25 b2 42 20 00    	jmpq   *0x2042b2(%rip)        # 6050f8 <_GLOBAL_OFFSET_TABLE_+0xf8>
  400e46:	68 1c 00 00 00       	pushq  $0x1c
  400e4b:	e9 20 fe ff ff       	jmpq   400c70 <_init+0x28>

0000000000400e50 <exit@plt>:
  400e50:	ff 25 aa 42 20 00    	jmpq   *0x2042aa(%rip)        # 605100 <_GLOBAL_OFFSET_TABLE_+0x100>
  400e56:	68 1d 00 00 00       	pushq  $0x1d
  400e5b:	e9 10 fe ff ff       	jmpq   400c70 <_init+0x28>

0000000000400e60 <connect@plt>:
  400e60:	ff 25 a2 42 20 00    	jmpq   *0x2042a2(%rip)        # 605108 <_GLOBAL_OFFSET_TABLE_+0x108>
  400e66:	68 1e 00 00 00       	pushq  $0x1e
  400e6b:	e9 00 fe ff ff       	jmpq   400c70 <_init+0x28>

0000000000400e70 <__fprintf_chk@plt>:
  400e70:	ff 25 9a 42 20 00    	jmpq   *0x20429a(%rip)        # 605110 <_GLOBAL_OFFSET_TABLE_+0x110>
  400e76:	68 1f 00 00 00       	pushq  $0x1f
  400e7b:	e9 f0 fd ff ff       	jmpq   400c70 <_init+0x28>

0000000000400e80 <__sprintf_chk@plt>:
  400e80:	ff 25 92 42 20 00    	jmpq   *0x204292(%rip)        # 605118 <_GLOBAL_OFFSET_TABLE_+0x118>
  400e86:	68 20 00 00 00       	pushq  $0x20
  400e8b:	e9 e0 fd ff ff       	jmpq   400c70 <_init+0x28>

0000000000400e90 <socket@plt>:
  400e90:	ff 25 8a 42 20 00    	jmpq   *0x20428a(%rip)        # 605120 <_GLOBAL_OFFSET_TABLE_+0x120>
  400e96:	68 21 00 00 00       	pushq  $0x21
  400e9b:	e9 d0 fd ff ff       	jmpq   400c70 <_init+0x28>

Disassembly of section .plt.got:

0000000000400ea0 <.plt.got>:
  400ea0:	ff 25 52 41 20 00    	jmpq   *0x204152(%rip)        # 604ff8 <_DYNAMIC+0x1d0>
  400ea6:	66 90                	xchg   %ax,%ax

Disassembly of section .text:

0000000000400eb0 <_start>:
  400eb0:	31 ed                	xor    %ebp,%ebp
  400eb2:	49 89 d1             	mov    %rdx,%r9
  400eb5:	5e                   	pop    %rsi
  400eb6:	48 89 e2             	mov    %rsp,%rdx
  400eb9:	48 83 e4 f0          	and    $0xfffffffffffffff0,%rsp
  400ebd:	50                   	push   %rax
  400ebe:	54                   	push   %rsp
  400ebf:	49 c7 c0 a0 2f 40 00 	mov    $0x402fa0,%r8
  400ec6:	48 c7 c1 30 2f 40 00 	mov    $0x402f30,%rcx
  400ecd:	48 c7 c7 b5 11 40 00 	mov    $0x4011b5,%rdi
  400ed4:	e8 77 fe ff ff       	callq  400d50 <__libc_start_main@plt>
  400ed9:	f4                   	hlt    
  400eda:	66 0f 1f 44 00 00    	nopw   0x0(%rax,%rax,1)

0000000000400ee0 <deregister_tm_clones>:
  400ee0:	b8 b7 54 60 00       	mov    $0x6054b7,%eax
  400ee5:	55                   	push   %rbp
  400ee6:	48 2d b0 54 60 00    	sub    $0x6054b0,%rax
  400eec:	48 83 f8 0e          	cmp    $0xe,%rax
  400ef0:	48 89 e5             	mov    %rsp,%rbp
  400ef3:	76 1b                	jbe    400f10 <deregister_tm_clones+0x30>
  400ef5:	b8 00 00 00 00       	mov    $0x0,%eax
  400efa:	48 85 c0             	test   %rax,%rax
  400efd:	74 11                	je     400f10 <deregister_tm_clones+0x30>
  400eff:	5d                   	pop    %rbp
  400f00:	bf b0 54 60 00       	mov    $0x6054b0,%edi
  400f05:	ff e0                	jmpq   *%rax
  400f07:	66 0f 1f 84 00 00 00 	nopw   0x0(%rax,%rax,1)
  400f0e:	00 00 
  400f10:	5d                   	pop    %rbp
  400f11:	c3                   	retq   
  400f12:	0f 1f 40 00          	nopl   0x0(%rax)
  400f16:	66 2e 0f 1f 84 00 00 	nopw   %cs:0x0(%rax,%rax,1)
  400f1d:	00 00 00 

0000000000400f20 <register_tm_clones>:
  400f20:	be b0 54 60 00       	mov    $0x6054b0,%esi
  400f25:	55                   	push   %rbp
  400f26:	48 81 ee b0 54 60 00 	sub    $0x6054b0,%rsi
  400f2d:	48 c1 fe 03          	sar    $0x3,%rsi
  400f31:	48 89 e5             	mov    %rsp,%rbp
  400f34:	48 89 f0             	mov    %rsi,%rax
  400f37:	48 c1 e8 3f          	shr    $0x3f,%rax
  400f3b:	48 01 c6             	add    %rax,%rsi
  400f3e:	48 d1 fe             	sar    %rsi
  400f41:	74 15                	je     400f58 <register_tm_clones+0x38>
  400f43:	b8 00 00 00 00       	mov    $0x0,%eax
  400f48:	48 85 c0             	test   %rax,%rax
  400f4b:	74 0b                	je     400f58 <register_tm_clones+0x38>
  400f4d:	5d                   	pop    %rbp
  400f4e:	bf b0 54 60 00       	mov    $0x6054b0,%edi
  400f53:	ff e0                	jmpq   *%rax
  400f55:	0f 1f 00             	nopl   (%rax)
  400f58:	5d                   	pop    %rbp
  400f59:	c3                   	retq   
  400f5a:	66 0f 1f 44 00 00    	nopw   0x0(%rax,%rax,1)

0000000000400f60 <__do_global_dtors_aux>:
  400f60:	80 3d 81 45 20 00 00 	cmpb   $0x0,0x204581(%rip)        # 6054e8 <completed.7585>
  400f67:	75 11                	jne    400f7a <__do_global_dtors_aux+0x1a>
  400f69:	55                   	push   %rbp
  400f6a:	48 89 e5             	mov    %rsp,%rbp
  400f6d:	e8 6e ff ff ff       	callq  400ee0 <deregister_tm_clones>
  400f72:	5d                   	pop    %rbp
  400f73:	c6 05 6e 45 20 00 01 	movb   $0x1,0x20456e(%rip)        # 6054e8 <completed.7585>
  400f7a:	f3 c3                	repz retq 
  400f7c:	0f 1f 40 00          	nopl   0x0(%rax)

0000000000400f80 <frame_dummy>:
  400f80:	bf 20 4e 60 00       	mov    $0x604e20,%edi
  400f85:	48 83 3f 00          	cmpq   $0x0,(%rdi)
  400f89:	75 05                	jne    400f90 <frame_dummy+0x10>
  400f8b:	eb 93                	jmp    400f20 <register_tm_clones>
  400f8d:	0f 1f 00             	nopl   (%rax)
  400f90:	b8 00 00 00 00       	mov    $0x0,%eax
  400f95:	48 85 c0             	test   %rax,%rax
  400f98:	74 f1                	je     400f8b <frame_dummy+0xb>
  400f9a:	55                   	push   %rbp
  400f9b:	48 89 e5             	mov    %rsp,%rbp
  400f9e:	ff d0                	callq  *%rax
  400fa0:	5d                   	pop    %rbp
  400fa1:	e9 7a ff ff ff       	jmpq   400f20 <register_tm_clones>

0000000000400fa6 <usage>:
  400fa6:	48 83 ec 08          	sub    $0x8,%rsp
  400faa:	48 89 fa             	mov    %rdi,%rdx
  400fad:	83 3d 74 45 20 00 00 	cmpl   $0x0,0x204574(%rip)        # 605528 <is_checker>
  400fb4:	74 3e                	je     400ff4 <usage+0x4e>
  400fb6:	be b8 2f 40 00       	mov    $0x402fb8,%esi
  400fbb:	bf 01 00 00 00       	mov    $0x1,%edi
  400fc0:	b8 00 00 00 00       	mov    $0x0,%eax
  400fc5:	e8 36 fe ff ff       	callq  400e00 <__printf_chk@plt>
  400fca:	bf f0 2f 40 00       	mov    $0x402ff0,%edi
  400fcf:	e8 fc fc ff ff       	callq  400cd0 <puts@plt>
  400fd4:	bf 68 31 40 00       	mov    $0x403168,%edi
  400fd9:	e8 f2 fc ff ff       	callq  400cd0 <puts@plt>
  400fde:	bf 18 30 40 00       	mov    $0x403018,%edi
  400fe3:	e8 e8 fc ff ff       	callq  400cd0 <puts@plt>
  400fe8:	bf 82 31 40 00       	mov    $0x403182,%edi
  400fed:	e8 de fc ff ff       	callq  400cd0 <puts@plt>
  400ff2:	eb 32                	jmp    401026 <usage+0x80>
  400ff4:	be 9e 31 40 00       	mov    $0x40319e,%esi
  400ff9:	bf 01 00 00 00       	mov    $0x1,%edi
  400ffe:	b8 00 00 00 00       	mov    $0x0,%eax
  401003:	e8 f8 fd ff ff       	callq  400e00 <__printf_chk@plt>
  401008:	bf 40 30 40 00       	mov    $0x403040,%edi
  40100d:	e8 be fc ff ff       	callq  400cd0 <puts@plt>
  401012:	bf 68 30 40 00       	mov    $0x403068,%edi
  401017:	e8 b4 fc ff ff       	callq  400cd0 <puts@plt>
  40101c:	bf bc 31 40 00       	mov    $0x4031bc,%edi
  401021:	e8 aa fc ff ff       	callq  400cd0 <puts@plt>
  401026:	bf 00 00 00 00       	mov    $0x0,%edi
  40102b:	e8 20 fe ff ff       	callq  400e50 <exit@plt>

0000000000401030 <initialize_target>:
  401030:	55                   	push   %rbp
  401031:	53                   	push   %rbx
  401032:	48 81 ec 18 21 00 00 	sub    $0x2118,%rsp
  401039:	89 f5                	mov    %esi,%ebp
  40103b:	64 48 8b 04 25 28 00 	mov    %fs:0x28,%rax
  401042:	00 00 
  401044:	48 89 84 24 08 21 00 	mov    %rax,0x2108(%rsp)
  40104b:	00 
  40104c:	31 c0                	xor    %eax,%eax
  40104e:	89 3d c4 44 20 00    	mov    %edi,0x2044c4(%rip)        # 605518 <check_level>
  401054:	8b 3d 0e 41 20 00    	mov    0x20410e(%rip),%edi        # 605168 <target_id>
  40105a:	e8 b0 1e 00 00       	callq  402f0f <gencookie>
  40105f:	89 05 bf 44 20 00    	mov    %eax,0x2044bf(%rip)        # 605524 <cookie>
  401065:	89 c7                	mov    %eax,%edi
  401067:	e8 a3 1e 00 00       	callq  402f0f <gencookie>
  40106c:	89 05 ae 44 20 00    	mov    %eax,0x2044ae(%rip)        # 605520 <authkey>
  401072:	8b 05 f0 40 20 00    	mov    0x2040f0(%rip),%eax        # 605168 <target_id>
  401078:	8d 78 01             	lea    0x1(%rax),%edi
  40107b:	e8 20 fc ff ff       	callq  400ca0 <srandom@plt>
  401080:	e8 3b fd ff ff       	callq  400dc0 <random@plt>
  401085:	89 c7                	mov    %eax,%edi
  401087:	e8 03 03 00 00       	callq  40138f <scramble>
  40108c:	89 c3                	mov    %eax,%ebx
  40108e:	85 ed                	test   %ebp,%ebp
  401090:	74 18                	je     4010aa <initialize_target+0x7a>
  401092:	bf 00 00 00 00       	mov    $0x0,%edi
  401097:	e8 14 fd ff ff       	callq  400db0 <time@plt>
  40109c:	89 c7                	mov    %eax,%edi
  40109e:	e8 fd fb ff ff       	callq  400ca0 <srandom@plt>
  4010a3:	e8 18 fd ff ff       	callq  400dc0 <random@plt>
  4010a8:	eb 05                	jmp    4010af <initialize_target+0x7f>
  4010aa:	b8 00 00 00 00       	mov    $0x0,%eax
  4010af:	01 c3                	add    %eax,%ebx
  4010b1:	0f b7 db             	movzwl %bx,%ebx
  4010b4:	8d 04 dd 00 01 00 00 	lea    0x100(,%rbx,8),%eax
  4010bb:	89 c0                	mov    %eax,%eax
  4010bd:	48 89 05 dc 43 20 00 	mov    %rax,0x2043dc(%rip)        # 6054a0 <buf_offset>
  4010c4:	c6 05 7d 50 20 00 72 	movb   $0x72,0x20507d(%rip)        # 606148 <target_prefix>
  4010cb:	83 3d d6 43 20 00 00 	cmpl   $0x0,0x2043d6(%rip)        # 6054a8 <notify>
  4010d2:	0f 84 bb 00 00 00    	je     401193 <initialize_target+0x163>
  4010d8:	83 3d 49 44 20 00 00 	cmpl   $0x0,0x204449(%rip)        # 605528 <is_checker>
  4010df:	0f 85 ae 00 00 00    	jne    401193 <initialize_target+0x163>
  4010e5:	be 00 01 00 00       	mov    $0x100,%esi
  4010ea:	48 89 e7             	mov    %rsp,%rdi
  4010ed:	e8 4e fd ff ff       	callq  400e40 <gethostname@plt>
  4010f2:	85 c0                	test   %eax,%eax
  4010f4:	74 25                	je     40111b <initialize_target+0xeb>
  4010f6:	bf 98 30 40 00       	mov    $0x403098,%edi
  4010fb:	e8 d0 fb ff ff       	callq  400cd0 <puts@plt>
  401100:	bf 08 00 00 00       	mov    $0x8,%edi
  401105:	e8 46 fd ff ff       	callq  400e50 <exit@plt>
  40110a:	48 89 e6             	mov    %rsp,%rsi
  40110d:	e8 6e fb ff ff       	callq  400c80 <strcasecmp@plt>
  401112:	85 c0                	test   %eax,%eax
  401114:	74 21                	je     401137 <initialize_target+0x107>
  401116:	83 c3 01             	add    $0x1,%ebx
  401119:	eb 05                	jmp    401120 <initialize_target+0xf0>
  40111b:	bb 00 00 00 00       	mov    $0x0,%ebx
  401120:	48 63 c3             	movslq %ebx,%rax
  401123:	48 8b 3c c5 80 51 60 	mov    0x605180(,%rax,8),%rdi
  40112a:	00 
  40112b:	48 85 ff             	test   %rdi,%rdi
  40112e:	75 da                	jne    40110a <initialize_target+0xda>
  401130:	b8 00 00 00 00       	mov    $0x0,%eax
  401135:	eb 05                	jmp    40113c <initialize_target+0x10c>
  401137:	b8 01 00 00 00       	mov    $0x1,%eax
  40113c:	85 c0                	test   %eax,%eax
  40113e:	75 1c                	jne    40115c <initialize_target+0x12c>
  401140:	48 89 e2             	mov    %rsp,%rdx
  401143:	be d0 30 40 00       	mov    $0x4030d0,%esi
  401148:	bf 01 00 00 00       	mov    $0x1,%edi
  40114d:	e8 ae fc ff ff       	callq  400e00 <__printf_chk@plt>
  401152:	bf 08 00 00 00       	mov    $0x8,%edi
  401157:	e8 f4 fc ff ff       	callq  400e50 <exit@plt>
  40115c:	48 8d bc 24 00 01 00 	lea    0x100(%rsp),%rdi
  401163:	00 
  401164:	e8 10 1b 00 00       	callq  402c79 <init_driver>
  401169:	85 c0                	test   %eax,%eax
  40116b:	79 26                	jns    401193 <initialize_target+0x163>
  40116d:	48 8d 94 24 00 01 00 	lea    0x100(%rsp),%rdx
  401174:	00 
  401175:	be 10 31 40 00       	mov    $0x403110,%esi
  40117a:	bf 01 00 00 00       	mov    $0x1,%edi
  40117f:	b8 00 00 00 00       	mov    $0x0,%eax
  401184:	e8 77 fc ff ff       	callq  400e00 <__printf_chk@plt>
  401189:	bf 08 00 00 00       	mov    $0x8,%edi
  40118e:	e8 bd fc ff ff       	callq  400e50 <exit@plt>
  401193:	48 8b 84 24 08 21 00 	mov    0x2108(%rsp),%rax
  40119a:	00 
  40119b:	64 48 33 04 25 28 00 	xor    %fs:0x28,%rax
  4011a2:	00 00 
  4011a4:	74 05                	je     4011ab <initialize_target+0x17b>
  4011a6:	e8 45 fb ff ff       	callq  400cf0 <__stack_chk_fail@plt>
  4011ab:	48 81 c4 18 21 00 00 	add    $0x2118,%rsp
  4011b2:	5b                   	pop    %rbx
  4011b3:	5d                   	pop    %rbp
  4011b4:	c3                   	retq   

00000000004011b5 <main>:
  4011b5:	41 56                	push   %r14
  4011b7:	41 55                	push   %r13
  4011b9:	41 54                	push   %r12
  4011bb:	55                   	push   %rbp
  4011bc:	53                   	push   %rbx
  4011bd:	41 89 fc             	mov    %edi,%r12d
  4011c0:	48 89 f3             	mov    %rsi,%rbx
  4011c3:	be b4 1f 40 00       	mov    $0x401fb4,%esi
  4011c8:	bf 0b 00 00 00       	mov    $0xb,%edi
  4011cd:	e8 8e fb ff ff       	callq  400d60 <signal@plt>
  4011d2:	be 66 1f 40 00       	mov    $0x401f66,%esi
  4011d7:	bf 07 00 00 00       	mov    $0x7,%edi
  4011dc:	e8 7f fb ff ff       	callq  400d60 <signal@plt>
  4011e1:	be 02 20 40 00       	mov    $0x402002,%esi
  4011e6:	bf 04 00 00 00       	mov    $0x4,%edi
  4011eb:	e8 70 fb ff ff       	callq  400d60 <signal@plt>
  4011f0:	83 3d 31 43 20 00 00 	cmpl   $0x0,0x204331(%rip)        # 605528 <is_checker>
  4011f7:	74 20                	je     401219 <main+0x64>
  4011f9:	be 50 20 40 00       	mov    $0x402050,%esi
  4011fe:	bf 0e 00 00 00       	mov    $0xe,%edi
  401203:	e8 58 fb ff ff       	callq  400d60 <signal@plt>
  401208:	bf 05 00 00 00       	mov    $0x5,%edi
  40120d:	e8 0e fb ff ff       	callq  400d20 <alarm@plt>
  401212:	bd da 31 40 00       	mov    $0x4031da,%ebp
  401217:	eb 05                	jmp    40121e <main+0x69>
  401219:	bd d5 31 40 00       	mov    $0x4031d5,%ebp
  40121e:	48 8b 05 9b 42 20 00 	mov    0x20429b(%rip),%rax        # 6054c0 <stdin@@GLIBC_2.2.5>
  401225:	48 89 05 e4 42 20 00 	mov    %rax,0x2042e4(%rip)        # 605510 <infile>
  40122c:	41 bd 00 00 00 00    	mov    $0x0,%r13d
  401232:	41 be 00 00 00 00    	mov    $0x0,%r14d
  401238:	e9 c6 00 00 00       	jmpq   401303 <main+0x14e>
  40123d:	83 e8 61             	sub    $0x61,%eax
  401240:	3c 10                	cmp    $0x10,%al
  401242:	0f 87 9c 00 00 00    	ja     4012e4 <main+0x12f>
  401248:	0f b6 c0             	movzbl %al,%eax
  40124b:	ff 24 c5 20 32 40 00 	jmpq   *0x403220(,%rax,8)
  401252:	48 8b 3b             	mov    (%rbx),%rdi
  401255:	e8 4c fd ff ff       	callq  400fa6 <usage>
  40125a:	be 85 34 40 00       	mov    $0x403485,%esi
  40125f:	48 8b 3d 62 42 20 00 	mov    0x204262(%rip),%rdi        # 6054c8 <optarg@@GLIBC_2.2.5>
  401266:	e8 a5 fb ff ff       	callq  400e10 <fopen@plt>
  40126b:	48 89 05 9e 42 20 00 	mov    %rax,0x20429e(%rip)        # 605510 <infile>
  401272:	48 85 c0             	test   %rax,%rax
  401275:	0f 85 88 00 00 00    	jne    401303 <main+0x14e>
  40127b:	48 8b 0d 46 42 20 00 	mov    0x204246(%rip),%rcx        # 6054c8 <optarg@@GLIBC_2.2.5>
  401282:	ba e2 31 40 00       	mov    $0x4031e2,%edx
  401287:	be 01 00 00 00       	mov    $0x1,%esi
  40128c:	48 8b 3d 4d 42 20 00 	mov    0x20424d(%rip),%rdi        # 6054e0 <stderr@@GLIBC_2.2.5>
  401293:	e8 d8 fb ff ff       	callq  400e70 <__fprintf_chk@plt>
  401298:	b8 01 00 00 00       	mov    $0x1,%eax
  40129d:	e9 e4 00 00 00       	jmpq   401386 <main+0x1d1>
  4012a2:	ba 10 00 00 00       	mov    $0x10,%edx
  4012a7:	be 00 00 00 00       	mov    $0x0,%esi
  4012ac:	48 8b 3d 15 42 20 00 	mov    0x204215(%rip),%rdi        # 6054c8 <optarg@@GLIBC_2.2.5>
  4012b3:	e8 78 fb ff ff       	callq  400e30 <strtoul@plt>
  4012b8:	41 89 c6             	mov    %eax,%r14d
  4012bb:	eb 46                	jmp    401303 <main+0x14e>
  4012bd:	ba 0a 00 00 00       	mov    $0xa,%edx
  4012c2:	be 00 00 00 00       	mov    $0x0,%esi
  4012c7:	48 8b 3d fa 41 20 00 	mov    0x2041fa(%rip),%rdi        # 6054c8 <optarg@@GLIBC_2.2.5>
  4012ce:	e8 bd fa ff ff       	callq  400d90 <strtol@plt>
  4012d3:	41 89 c5             	mov    %eax,%r13d
  4012d6:	eb 2b                	jmp    401303 <main+0x14e>
  4012d8:	c7 05 c6 41 20 00 00 	movl   $0x0,0x2041c6(%rip)        # 6054a8 <notify>
  4012df:	00 00 00 
  4012e2:	eb 1f                	jmp    401303 <main+0x14e>
  4012e4:	0f be d2             	movsbl %dl,%edx
  4012e7:	be ff 31 40 00       	mov    $0x4031ff,%esi
  4012ec:	bf 01 00 00 00       	mov    $0x1,%edi
  4012f1:	b8 00 00 00 00       	mov    $0x0,%eax
  4012f6:	e8 05 fb ff ff       	callq  400e00 <__printf_chk@plt>
  4012fb:	48 8b 3b             	mov    (%rbx),%rdi
  4012fe:	e8 a3 fc ff ff       	callq  400fa6 <usage>
  401303:	48 89 ea             	mov    %rbp,%rdx
  401306:	48 89 de             	mov    %rbx,%rsi
  401309:	44 89 e7             	mov    %r12d,%edi
  40130c:	e8 0f fb ff ff       	callq  400e20 <getopt@plt>
  401311:	89 c2                	mov    %eax,%edx
  401313:	3c ff                	cmp    $0xff,%al
  401315:	0f 85 22 ff ff ff    	jne    40123d <main+0x88>
  40131b:	be 01 00 00 00       	mov    $0x1,%esi
  401320:	44 89 ef             	mov    %r13d,%edi
  401323:	e8 08 fd ff ff       	callq  401030 <initialize_target>
  401328:	83 3d f9 41 20 00 00 	cmpl   $0x0,0x2041f9(%rip)        # 605528 <is_checker>
  40132f:	74 2a                	je     40135b <main+0x1a6>
  401331:	44 3b 35 e8 41 20 00 	cmp    0x2041e8(%rip),%r14d        # 605520 <authkey>
  401338:	74 21                	je     40135b <main+0x1a6>
  40133a:	44 89 f2             	mov    %r14d,%edx
  40133d:	be 38 31 40 00       	mov    $0x403138,%esi
  401342:	bf 01 00 00 00       	mov    $0x1,%edi
  401347:	b8 00 00 00 00       	mov    $0x0,%eax
  40134c:	e8 af fa ff ff       	callq  400e00 <__printf_chk@plt>
  401351:	b8 00 00 00 00       	mov    $0x0,%eax
  401356:	e8 a7 08 00 00       	callq  401c02 <check_fail>
  40135b:	8b 15 c3 41 20 00    	mov    0x2041c3(%rip),%edx        # 605524 <cookie>
  401361:	be 12 32 40 00       	mov    $0x403212,%esi
  401366:	bf 01 00 00 00       	mov    $0x1,%edi
  40136b:	b8 00 00 00 00       	mov    $0x0,%eax
  401370:	e8 8b fa ff ff       	callq  400e00 <__printf_chk@plt>
  401375:	48 8b 3d 24 41 20 00 	mov    0x204124(%rip),%rdi        # 6054a0 <buf_offset>
  40137c:	e8 22 0d 00 00       	callq  4020a3 <launch>
  401381:	b8 00 00 00 00       	mov    $0x0,%eax
  401386:	5b                   	pop    %rbx
  401387:	5d                   	pop    %rbp
  401388:	41 5c                	pop    %r12
  40138a:	41 5d                	pop    %r13
  40138c:	41 5e                	pop    %r14
  40138e:	c3                   	retq   

000000000040138f <scramble>:
  40138f:	48 83 ec 38          	sub    $0x38,%rsp
  401393:	64 48 8b 04 25 28 00 	mov    %fs:0x28,%rax
  40139a:	00 00 
  40139c:	48 89 44 24 28       	mov    %rax,0x28(%rsp)
  4013a1:	31 c0                	xor    %eax,%eax
  4013a3:	eb 10                	jmp    4013b5 <scramble+0x26>
  4013a5:	69 d0 b2 eb 00 00    	imul   $0xebb2,%eax,%edx
  4013ab:	01 fa                	add    %edi,%edx
  4013ad:	89 c1                	mov    %eax,%ecx
  4013af:	89 14 8c             	mov    %edx,(%rsp,%rcx,4)
  4013b2:	83 c0 01             	add    $0x1,%eax
  4013b5:	83 f8 09             	cmp    $0x9,%eax
  4013b8:	76 eb                	jbe    4013a5 <scramble+0x16>
  4013ba:	8b 44 24 1c          	mov    0x1c(%rsp),%eax
  4013be:	69 c0 4c cc 00 00    	imul   $0xcc4c,%eax,%eax
  4013c4:	89 44 24 1c          	mov    %eax,0x1c(%rsp)
  4013c8:	8b 44 24 04          	mov    0x4(%rsp),%eax
  4013cc:	69 c0 fa f7 00 00    	imul   $0xf7fa,%eax,%eax
  4013d2:	89 44 24 04          	mov    %eax,0x4(%rsp)
  4013d6:	8b 44 24 20          	mov    0x20(%rsp),%eax
  4013da:	69 c0 55 a1 00 00    	imul   $0xa155,%eax,%eax
  4013e0:	89 44 24 20          	mov    %eax,0x20(%rsp)
  4013e4:	8b 44 24 18          	mov    0x18(%rsp),%eax
  4013e8:	69 c0 c4 e3 00 00    	imul   $0xe3c4,%eax,%eax
  4013ee:	89 44 24 18          	mov    %eax,0x18(%rsp)
  4013f2:	8b 44 24 14          	mov    0x14(%rsp),%eax
  4013f6:	69 c0 72 94 00 00    	imul   $0x9472,%eax,%eax
  4013fc:	89 44 24 14          	mov    %eax,0x14(%rsp)
  401400:	8b 44 24 14          	mov    0x14(%rsp),%eax
  401404:	69 c0 31 ec 00 00    	imul   $0xec31,%eax,%eax
  40140a:	89 44 24 14          	mov    %eax,0x14(%rsp)
  40140e:	8b 44 24 04          	mov    0x4(%rsp),%eax
  401412:	69 c0 41 f5 00 00    	imul   $0xf541,%eax,%eax
  401418:	89 44 24 04          	mov    %eax,0x4(%rsp)
  40141c:	8b 44 24 04          	mov    0x4(%rsp),%eax
  401420:	69 c0 77 8d 00 00    	imul   $0x8d77,%eax,%eax
  401426:	89 44 24 04          	mov    %eax,0x4(%rsp)
  40142a:	8b 44 24 20          	mov    0x20(%rsp),%eax
  40142e:	69 c0 e4 79 00 00    	imul   $0x79e4,%eax,%eax
  401434:	89 44 24 20          	mov    %eax,0x20(%rsp)
  401438:	8b 44 24 04          	mov    0x4(%rsp),%eax
  40143c:	69 c0 b0 cb 00 00    	imul   $0xcbb0,%eax,%eax
  401442:	89 44 24 04          	mov    %eax,0x4(%rsp)
  401446:	8b 44 24 08          	mov    0x8(%rsp),%eax
  40144a:	69 c0 6a be 00 00    	imul   $0xbe6a,%eax,%eax
  401450:	89 44 24 08          	mov    %eax,0x8(%rsp)
  401454:	8b 04 24             	mov    (%rsp),%eax
  401457:	69 c0 1a ec 00 00    	imul   $0xec1a,%eax,%eax
  40145d:	89 04 24             	mov    %eax,(%rsp)
  401460:	8b 44 24 0c          	mov    0xc(%rsp),%eax
  401464:	69 c0 1c 25 00 00    	imul   $0x251c,%eax,%eax
  40146a:	89 44 24 0c          	mov    %eax,0xc(%rsp)
  40146e:	8b 44 24 10          	mov    0x10(%rsp),%eax
  401472:	69 c0 8d a7 00 00    	imul   $0xa78d,%eax,%eax
  401478:	89 44 24 10          	mov    %eax,0x10(%rsp)
  40147c:	8b 44 24 08          	mov    0x8(%rsp),%eax
  401480:	69 c0 cf d7 00 00    	imul   $0xd7cf,%eax,%eax
  401486:	89 44 24 08          	mov    %eax,0x8(%rsp)
  40148a:	8b 44 24 20          	mov    0x20(%rsp),%eax
  40148e:	69 c0 4f 09 00 00    	imul   $0x94f,%eax,%eax
  401494:	89 44 24 20          	mov    %eax,0x20(%rsp)
  401498:	8b 44 24 1c          	mov    0x1c(%rsp),%eax
  40149c:	69 c0 47 bc 00 00    	imul   $0xbc47,%eax,%eax
  4014a2:	89 44 24 1c          	mov    %eax,0x1c(%rsp)
  4014a6:	8b 44 24 24          	mov    0x24(%rsp),%eax
  4014aa:	69 c0 67 44 00 00    	imul   $0x4467,%eax,%eax
  4014b0:	89 44 24 24          	mov    %eax,0x24(%rsp)
  4014b4:	8b 44 24 24          	mov    0x24(%rsp),%eax
  4014b8:	69 c0 ff 0b 00 00    	imul   $0xbff,%eax,%eax
  4014be:	89 44 24 24          	mov    %eax,0x24(%rsp)
  4014c2:	8b 44 24 0c          	mov    0xc(%rsp),%eax
  4014c6:	69 c0 cb bf 00 00    	imul   $0xbfcb,%eax,%eax
  4014cc:	89 44 24 0c          	mov    %eax,0xc(%rsp)
  4014d0:	8b 44 24 18          	mov    0x18(%rsp),%eax
  4014d4:	69 c0 42 bb 00 00    	imul   $0xbb42,%eax,%eax
  4014da:	89 44 24 18          	mov    %eax,0x18(%rsp)
  4014de:	8b 44 24 08          	mov    0x8(%rsp),%eax
  4014e2:	69 c0 9e 00 00 00    	imul   $0x9e,%eax,%eax
  4014e8:	89 44 24 08          	mov    %eax,0x8(%rsp)
  4014ec:	8b 44 24 10          	mov    0x10(%rsp),%eax
  4014f0:	69 c0 23 96 00 00    	imul   $0x9623,%eax,%eax
  4014f6:	89 44 24 10          	mov    %eax,0x10(%rsp)
  4014fa:	8b 44 24 24          	mov    0x24(%rsp),%eax
  4014fe:	69 c0 8b fa 00 00    	imul   $0xfa8b,%eax,%eax
  401504:	89 44 24 24          	mov    %eax,0x24(%rsp)
  401508:	8b 44 24 08          	mov    0x8(%rsp),%eax
  40150c:	69 c0 14 11 00 00    	imul   $0x1114,%eax,%eax
  401512:	89 44 24 08          	mov    %eax,0x8(%rsp)
  401516:	8b 44 24 04          	mov    0x4(%rsp),%eax
  40151a:	69 c0 66 07 00 00    	imul   $0x766,%eax,%eax
  401520:	89 44 24 04          	mov    %eax,0x4(%rsp)
  401524:	8b 44 24 10          	mov    0x10(%rsp),%eax
  401528:	69 c0 46 53 00 00    	imul   $0x5346,%eax,%eax
  40152e:	89 44 24 10          	mov    %eax,0x10(%rsp)
  401532:	8b 44 24 08          	mov    0x8(%rsp),%eax
  401536:	69 c0 01 1c 00 00    	imul   $0x1c01,%eax,%eax
  40153c:	89 44 24 08          	mov    %eax,0x8(%rsp)
  401540:	8b 44 24 20          	mov    0x20(%rsp),%eax
  401544:	69 c0 ec 94 00 00    	imul   $0x94ec,%eax,%eax
  40154a:	89 44 24 20          	mov    %eax,0x20(%rsp)
  40154e:	8b 44 24 04          	mov    0x4(%rsp),%eax
  401552:	69 c0 ff 95 00 00    	imul   $0x95ff,%eax,%eax
  401558:	89 44 24 04          	mov    %eax,0x4(%rsp)
  40155c:	8b 44 24 08          	mov    0x8(%rsp),%eax
  401560:	69 c0 89 0a 00 00    	imul   $0xa89,%eax,%eax
  401566:	89 44 24 08          	mov    %eax,0x8(%rsp)
  40156a:	8b 44 24 10          	mov    0x10(%rsp),%eax
  40156e:	69 c0 d7 10 00 00    	imul   $0x10d7,%eax,%eax
  401574:	89 44 24 10          	mov    %eax,0x10(%rsp)
  401578:	8b 04 24             	mov    (%rsp),%eax
  40157b:	69 c0 97 a0 00 00    	imul   $0xa097,%eax,%eax
  401581:	89 04 24             	mov    %eax,(%rsp)
  401584:	8b 44 24 20          	mov    0x20(%rsp),%eax
  401588:	69 c0 6d 24 00 00    	imul   $0x246d,%eax,%eax
  40158e:	89 44 24 20          	mov    %eax,0x20(%rsp)
  401592:	8b 04 24             	mov    (%rsp),%eax
  401595:	69 c0 69 7d 00 00    	imul   $0x7d69,%eax,%eax
  40159b:	89 04 24             	mov    %eax,(%rsp)
  40159e:	8b 44 24 18          	mov    0x18(%rsp),%eax
  4015a2:	69 c0 07 4d 00 00    	imul   $0x4d07,%eax,%eax
  4015a8:	89 44 24 18          	mov    %eax,0x18(%rsp)
  4015ac:	8b 44 24 0c          	mov    0xc(%rsp),%eax
  4015b0:	69 c0 35 90 00 00    	imul   $0x9035,%eax,%eax
  4015b6:	89 44 24 0c          	mov    %eax,0xc(%rsp)
  4015ba:	8b 44 24 20          	mov    0x20(%rsp),%eax
  4015be:	69 c0 30 e9 00 00    	imul   $0xe930,%eax,%eax
  4015c4:	89 44 24 20          	mov    %eax,0x20(%rsp)
  4015c8:	8b 44 24 04          	mov    0x4(%rsp),%eax
  4015cc:	69 c0 bb db 00 00    	imul   $0xdbbb,%eax,%eax
  4015d2:	89 44 24 04          	mov    %eax,0x4(%rsp)
  4015d6:	8b 04 24             	mov    (%rsp),%eax
  4015d9:	69 c0 60 36 00 00    	imul   $0x3660,%eax,%eax
  4015df:	89 04 24             	mov    %eax,(%rsp)
  4015e2:	8b 44 24 08          	mov    0x8(%rsp),%eax
  4015e6:	69 c0 f7 a9 00 00    	imul   $0xa9f7,%eax,%eax
  4015ec:	89 44 24 08          	mov    %eax,0x8(%rsp)
  4015f0:	8b 44 24 04          	mov    0x4(%rsp),%eax
  4015f4:	69 c0 4f bc 00 00    	imul   $0xbc4f,%eax,%eax
  4015fa:	89 44 24 04          	mov    %eax,0x4(%rsp)
  4015fe:	8b 44 24 08          	mov    0x8(%rsp),%eax
  401602:	69 c0 47 31 00 00    	imul   $0x3147,%eax,%eax
  401608:	89 44 24 08          	mov    %eax,0x8(%rsp)
  40160c:	8b 44 24 24          	mov    0x24(%rsp),%eax
  401610:	69 c0 a0 75 00 00    	imul   $0x75a0,%eax,%eax
  401616:	89 44 24 24          	mov    %eax,0x24(%rsp)
  40161a:	8b 44 24 0c          	mov    0xc(%rsp),%eax
  40161e:	69 c0 de 9b 00 00    	imul   $0x9bde,%eax,%eax
  401624:	89 44 24 0c          	mov    %eax,0xc(%rsp)
  401628:	8b 44 24 14          	mov    0x14(%rsp),%eax
  40162c:	69 c0 ee 32 00 00    	imul   $0x32ee,%eax,%eax
  401632:	89 44 24 14          	mov    %eax,0x14(%rsp)
  401636:	8b 44 24 10          	mov    0x10(%rsp),%eax
  40163a:	69 c0 ed aa 00 00    	imul   $0xaaed,%eax,%eax
  401640:	89 44 24 10          	mov    %eax,0x10(%rsp)
  401644:	8b 44 24 20          	mov    0x20(%rsp),%eax
  401648:	69 c0 38 6d 00 00    	imul   $0x6d38,%eax,%eax
  40164e:	89 44 24 20          	mov    %eax,0x20(%rsp)
  401652:	8b 44 24 14          	mov    0x14(%rsp),%eax
  401656:	69 c0 04 99 00 00    	imul   $0x9904,%eax,%eax
  40165c:	89 44 24 14          	mov    %eax,0x14(%rsp)
  401660:	8b 44 24 18          	mov    0x18(%rsp),%eax
  401664:	69 c0 1a f8 00 00    	imul   $0xf81a,%eax,%eax
  40166a:	89 44 24 18          	mov    %eax,0x18(%rsp)
  40166e:	8b 44 24 04          	mov    0x4(%rsp),%eax
  401672:	69 c0 de 75 00 00    	imul   $0x75de,%eax,%eax
  401678:	89 44 24 04          	mov    %eax,0x4(%rsp)
  40167c:	8b 44 24 1c          	mov    0x1c(%rsp),%eax
  401680:	69 c0 1a 4f 00 00    	imul   $0x4f1a,%eax,%eax
  401686:	89 44 24 1c          	mov    %eax,0x1c(%rsp)
  40168a:	8b 04 24             	mov    (%rsp),%eax
  40168d:	69 c0 c6 92 00 00    	imul   $0x92c6,%eax,%eax
  401693:	89 04 24             	mov    %eax,(%rsp)
  401696:	8b 44 24 08          	mov    0x8(%rsp),%eax
  40169a:	69 c0 6b 2c 00 00    	imul   $0x2c6b,%eax,%eax
  4016a0:	89 44 24 08          	mov    %eax,0x8(%rsp)
  4016a4:	8b 44 24 14          	mov    0x14(%rsp),%eax
  4016a8:	69 c0 05 1c 00 00    	imul   $0x1c05,%eax,%eax
  4016ae:	89 44 24 14          	mov    %eax,0x14(%rsp)
  4016b2:	8b 44 24 04          	mov    0x4(%rsp),%eax
  4016b6:	69 c0 52 5b 00 00    	imul   $0x5b52,%eax,%eax
  4016bc:	89 44 24 04          	mov    %eax,0x4(%rsp)
  4016c0:	8b 44 24 14          	mov    0x14(%rsp),%eax
  4016c4:	69 c0 92 a0 00 00    	imul   $0xa092,%eax,%eax
  4016ca:	89 44 24 14          	mov    %eax,0x14(%rsp)
  4016ce:	8b 44 24 04          	mov    0x4(%rsp),%eax
  4016d2:	69 c0 3a c3 00 00    	imul   $0xc33a,%eax,%eax
  4016d8:	89 44 24 04          	mov    %eax,0x4(%rsp)
  4016dc:	8b 44 24 20          	mov    0x20(%rsp),%eax
  4016e0:	69 c0 f1 ef 00 00    	imul   $0xeff1,%eax,%eax
  4016e6:	89 44 24 20          	mov    %eax,0x20(%rsp)
  4016ea:	8b 44 24 0c          	mov    0xc(%rsp),%eax
  4016ee:	69 c0 0c 98 00 00    	imul   $0x980c,%eax,%eax
  4016f4:	89 44 24 0c          	mov    %eax,0xc(%rsp)
  4016f8:	8b 44 24 10          	mov    0x10(%rsp),%eax
  4016fc:	69 c0 79 44 00 00    	imul   $0x4479,%eax,%eax
  401702:	89 44 24 10          	mov    %eax,0x10(%rsp)
  401706:	8b 04 24             	mov    (%rsp),%eax
  401709:	69 c0 37 32 00 00    	imul   $0x3237,%eax,%eax
  40170f:	89 04 24             	mov    %eax,(%rsp)
  401712:	8b 44 24 04          	mov    0x4(%rsp),%eax
  401716:	69 c0 c0 0e 00 00    	imul   $0xec0,%eax,%eax
  40171c:	89 44 24 04          	mov    %eax,0x4(%rsp)
  401720:	8b 44 24 14          	mov    0x14(%rsp),%eax
  401724:	69 c0 ea 3a 00 00    	imul   $0x3aea,%eax,%eax
  40172a:	89 44 24 14          	mov    %eax,0x14(%rsp)
  40172e:	8b 44 24 18          	mov    0x18(%rsp),%eax
  401732:	69 c0 14 31 00 00    	imul   $0x3114,%eax,%eax
  401738:	89 44 24 18          	mov    %eax,0x18(%rsp)
  40173c:	8b 44 24 18          	mov    0x18(%rsp),%eax
  401740:	69 c0 33 be 00 00    	imul   $0xbe33,%eax,%eax
  401746:	89 44 24 18          	mov    %eax,0x18(%rsp)
  40174a:	8b 44 24 14          	mov    0x14(%rsp),%eax
  40174e:	69 c0 25 78 00 00    	imul   $0x7825,%eax,%eax
  401754:	89 44 24 14          	mov    %eax,0x14(%rsp)
  401758:	8b 44 24 08          	mov    0x8(%rsp),%eax
  40175c:	69 c0 05 ad 00 00    	imul   $0xad05,%eax,%eax
  401762:	89 44 24 08          	mov    %eax,0x8(%rsp)
  401766:	8b 44 24 04          	mov    0x4(%rsp),%eax
  40176a:	69 c0 97 45 00 00    	imul   $0x4597,%eax,%eax
  401770:	89 44 24 04          	mov    %eax,0x4(%rsp)
  401774:	8b 04 24             	mov    (%rsp),%eax
  401777:	69 c0 6e 79 00 00    	imul   $0x796e,%eax,%eax
  40177d:	89 04 24             	mov    %eax,(%rsp)
  401780:	8b 04 24             	mov    (%rsp),%eax
  401783:	69 c0 3c 3c 00 00    	imul   $0x3c3c,%eax,%eax
  401789:	89 04 24             	mov    %eax,(%rsp)
  40178c:	8b 04 24             	mov    (%rsp),%eax
  40178f:	69 c0 99 27 00 00    	imul   $0x2799,%eax,%eax
  401795:	89 04 24             	mov    %eax,(%rsp)
  401798:	8b 44 24 20          	mov    0x20(%rsp),%eax
  40179c:	69 c0 61 ec 00 00    	imul   $0xec61,%eax,%eax
  4017a2:	89 44 24 20          	mov    %eax,0x20(%rsp)
  4017a6:	8b 44 24 20          	mov    0x20(%rsp),%eax
  4017aa:	69 c0 a7 ae 00 00    	imul   $0xaea7,%eax,%eax
  4017b0:	89 44 24 20          	mov    %eax,0x20(%rsp)
  4017b4:	8b 44 24 0c          	mov    0xc(%rsp),%eax
  4017b8:	69 c0 ae 23 00 00    	imul   $0x23ae,%eax,%eax
  4017be:	89 44 24 0c          	mov    %eax,0xc(%rsp)
  4017c2:	8b 44 24 08          	mov    0x8(%rsp),%eax
  4017c6:	69 c0 21 68 00 00    	imul   $0x6821,%eax,%eax
  4017cc:	89 44 24 08          	mov    %eax,0x8(%rsp)
  4017d0:	8b 04 24             	mov    (%rsp),%eax
  4017d3:	69 c0 ae 11 00 00    	imul   $0x11ae,%eax,%eax
  4017d9:	89 04 24             	mov    %eax,(%rsp)
  4017dc:	8b 44 24 20          	mov    0x20(%rsp),%eax
  4017e0:	69 c0 8e 57 00 00    	imul   $0x578e,%eax,%eax
  4017e6:	89 44 24 20          	mov    %eax,0x20(%rsp)
  4017ea:	8b 44 24 0c          	mov    0xc(%rsp),%eax
  4017ee:	69 c0 c7 39 00 00    	imul   $0x39c7,%eax,%eax
  4017f4:	89 44 24 0c          	mov    %eax,0xc(%rsp)
  4017f8:	8b 44 24 08          	mov    0x8(%rsp),%eax
  4017fc:	69 c0 33 c8 00 00    	imul   $0xc833,%eax,%eax
  401802:	89 44 24 08          	mov    %eax,0x8(%rsp)
  401806:	8b 44 24 18          	mov    0x18(%rsp),%eax
  40180a:	69 c0 7d c5 00 00    	imul   $0xc57d,%eax,%eax
  401810:	89 44 24 18          	mov    %eax,0x18(%rsp)
  401814:	8b 44 24 24          	mov    0x24(%rsp),%eax
  401818:	69 c0 ce 11 00 00    	imul   $0x11ce,%eax,%eax
  40181e:	89 44 24 24          	mov    %eax,0x24(%rsp)
  401822:	8b 44 24 18          	mov    0x18(%rsp),%eax
  401826:	69 c0 b3 93 00 00    	imul   $0x93b3,%eax,%eax
  40182c:	89 44 24 18          	mov    %eax,0x18(%rsp)
  401830:	8b 44 24 20          	mov    0x20(%rsp),%eax
  401834:	69 c0 8f 48 00 00    	imul   $0x488f,%eax,%eax
  40183a:	89 44 24 20          	mov    %eax,0x20(%rsp)
  40183e:	8b 44 24 04          	mov    0x4(%rsp),%eax
  401842:	69 c0 45 98 00 00    	imul   $0x9845,%eax,%eax
  401848:	89 44 24 04          	mov    %eax,0x4(%rsp)
  40184c:	8b 44 24 24          	mov    0x24(%rsp),%eax
  401850:	69 c0 e7 3a 00 00    	imul   $0x3ae7,%eax,%eax
  401856:	89 44 24 24          	mov    %eax,0x24(%rsp)
  40185a:	ba 00 00 00 00       	mov    $0x0,%edx
  40185f:	b8 00 00 00 00       	mov    $0x0,%eax
  401864:	eb 0a                	jmp    401870 <scramble+0x4e1>
  401866:	89 d1                	mov    %edx,%ecx
  401868:	8b 0c 8c             	mov    (%rsp,%rcx,4),%ecx
  40186b:	01 c8                	add    %ecx,%eax
  40186d:	83 c2 01             	add    $0x1,%edx
  401870:	83 fa 09             	cmp    $0x9,%edx
  401873:	76 f1                	jbe    401866 <scramble+0x4d7>
  401875:	48 8b 74 24 28       	mov    0x28(%rsp),%rsi
  40187a:	64 48 33 34 25 28 00 	xor    %fs:0x28,%rsi
  401881:	00 00 
  401883:	74 05                	je     40188a <scramble+0x4fb>
  401885:	e8 66 f4 ff ff       	callq  400cf0 <__stack_chk_fail@plt>
  40188a:	48 83 c4 38          	add    $0x38,%rsp
  40188e:	c3                   	retq   

000000000040188f <getbuf>:
  40188f:	48 83 ec 28          	sub    $0x28,%rsp
  401893:	48 89 e7             	mov    %rsp,%rdi
  401896:	e8 9c 03 00 00       	callq  401c37 <Gets>
  40189b:	b8 01 00 00 00       	mov    $0x1,%eax
  4018a0:	48 83 c4 28          	add    $0x28,%rsp
  4018a4:	c3                   	retq   

00000000004018a5 <touch1>:
  4018a5:	48 83 ec 08          	sub    $0x8,%rsp
  4018a9:	c7 05 69 3c 20 00 01 	movl   $0x1,0x203c69(%rip)        # 60551c <vlevel>
  4018b0:	00 00 00 
  4018b3:	bf db 32 40 00       	mov    $0x4032db,%edi
  4018b8:	e8 13 f4 ff ff       	callq  400cd0 <puts@plt>
  4018bd:	bf 01 00 00 00       	mov    $0x1,%edi
  4018c2:	e8 b5 05 00 00       	callq  401e7c <validate>
  4018c7:	bf 00 00 00 00       	mov    $0x0,%edi
  4018cc:	e8 7f f5 ff ff       	callq  400e50 <exit@plt>

00000000004018d1 <touch2>:
  4018d1:	48 83 ec 08          	sub    $0x8,%rsp
  4018d5:	89 fa                	mov    %edi,%edx
  4018d7:	c7 05 3b 3c 20 00 02 	movl   $0x2,0x203c3b(%rip)        # 60551c <vlevel>
  4018de:	00 00 00 
  4018e1:	39 3d 3d 3c 20 00    	cmp    %edi,0x203c3d(%rip)        # 605524 <cookie>
  4018e7:	75 20                	jne    401909 <touch2+0x38>
  4018e9:	be 00 33 40 00       	mov    $0x403300,%esi
  4018ee:	bf 01 00 00 00       	mov    $0x1,%edi
  4018f3:	b8 00 00 00 00       	mov    $0x0,%eax
  4018f8:	e8 03 f5 ff ff       	callq  400e00 <__printf_chk@plt>
  4018fd:	bf 02 00 00 00       	mov    $0x2,%edi
  401902:	e8 75 05 00 00       	callq  401e7c <validate>
  401907:	eb 1e                	jmp    401927 <touch2+0x56>
  401909:	be 28 33 40 00       	mov    $0x403328,%esi
  40190e:	bf 01 00 00 00       	mov    $0x1,%edi
  401913:	b8 00 00 00 00       	mov    $0x0,%eax
  401918:	e8 e3 f4 ff ff       	callq  400e00 <__printf_chk@plt>
  40191d:	bf 02 00 00 00       	mov    $0x2,%edi
  401922:	e8 17 06 00 00       	callq  401f3e <fail>
  401927:	bf 00 00 00 00       	mov    $0x0,%edi
  40192c:	e8 1f f5 ff ff       	callq  400e50 <exit@plt>

0000000000401931 <hexmatch>:
  401931:	41 54                	push   %r12
  401933:	55                   	push   %rbp
  401934:	53                   	push   %rbx
  401935:	48 83 c4 80          	add    $0xffffffffffffff80,%rsp
  401939:	89 fd                	mov    %edi,%ebp
  40193b:	48 89 f3             	mov    %rsi,%rbx
  40193e:	64 48 8b 04 25 28 00 	mov    %fs:0x28,%rax
  401945:	00 00 
  401947:	48 89 44 24 78       	mov    %rax,0x78(%rsp)
  40194c:	31 c0                	xor    %eax,%eax
  40194e:	e8 6d f4 ff ff       	callq  400dc0 <random@plt>
  401953:	48 89 c1             	mov    %rax,%rcx
  401956:	48 ba 0b d7 a3 70 3d 	movabs $0xa3d70a3d70a3d70b,%rdx
  40195d:	0a d7 a3 
  401960:	48 f7 ea             	imul   %rdx
  401963:	48 01 ca             	add    %rcx,%rdx
  401966:	48 c1 fa 06          	sar    $0x6,%rdx
  40196a:	48 89 c8             	mov    %rcx,%rax
  40196d:	48 c1 f8 3f          	sar    $0x3f,%rax
  401971:	48 29 c2             	sub    %rax,%rdx
  401974:	48 8d 04 92          	lea    (%rdx,%rdx,4),%rax
  401978:	48 8d 14 80          	lea    (%rax,%rax,4),%rdx
  40197c:	48 8d 04 95 00 00 00 	lea    0x0(,%rdx,4),%rax
  401983:	00 
  401984:	48 29 c1             	sub    %rax,%rcx
  401987:	4c 8d 24 0c          	lea    (%rsp,%rcx,1),%r12
  40198b:	41 89 e8             	mov    %ebp,%r8d
  40198e:	b9 f8 32 40 00       	mov    $0x4032f8,%ecx
  401993:	48 c7 c2 ff ff ff ff 	mov    $0xffffffffffffffff,%rdx
  40199a:	be 01 00 00 00       	mov    $0x1,%esi
  40199f:	4c 89 e7             	mov    %r12,%rdi
  4019a2:	b8 00 00 00 00       	mov    $0x0,%eax
  4019a7:	e8 d4 f4 ff ff       	callq  400e80 <__sprintf_chk@plt>
  4019ac:	ba 09 00 00 00       	mov    $0x9,%edx
  4019b1:	4c 89 e6             	mov    %r12,%rsi
  4019b4:	48 89 df             	mov    %rbx,%rdi
  4019b7:	e8 f4 f2 ff ff       	callq  400cb0 <strncmp@plt>
  4019bc:	85 c0                	test   %eax,%eax
  4019be:	0f 94 c0             	sete   %al
  4019c1:	48 8b 5c 24 78       	mov    0x78(%rsp),%rbx
  4019c6:	64 48 33 1c 25 28 00 	xor    %fs:0x28,%rbx
  4019cd:	00 00 
  4019cf:	74 05                	je     4019d6 <hexmatch+0xa5>
  4019d1:	e8 1a f3 ff ff       	callq  400cf0 <__stack_chk_fail@plt>
  4019d6:	0f b6 c0             	movzbl %al,%eax
  4019d9:	48 83 ec 80          	sub    $0xffffffffffffff80,%rsp
  4019dd:	5b                   	pop    %rbx
  4019de:	5d                   	pop    %rbp
  4019df:	41 5c                	pop    %r12
  4019e1:	c3                   	retq   

00000000004019e2 <touch3>:
  4019e2:	53                   	push   %rbx
  4019e3:	48 89 fb             	mov    %rdi,%rbx
  4019e6:	c7 05 2c 3b 20 00 03 	movl   $0x3,0x203b2c(%rip)        # 60551c <vlevel>
  4019ed:	00 00 00 
  4019f0:	48 89 fe             	mov    %rdi,%rsi
  4019f3:	8b 3d 2b 3b 20 00    	mov    0x203b2b(%rip),%edi        # 605524 <cookie>
  4019f9:	e8 33 ff ff ff       	callq  401931 <hexmatch>
  4019fe:	85 c0                	test   %eax,%eax
  401a00:	74 23                	je     401a25 <touch3+0x43>
  401a02:	48 89 da             	mov    %rbx,%rdx
  401a05:	be 50 33 40 00       	mov    $0x403350,%esi
  401a0a:	bf 01 00 00 00       	mov    $0x1,%edi
  401a0f:	b8 00 00 00 00       	mov    $0x0,%eax
  401a14:	e8 e7 f3 ff ff       	callq  400e00 <__printf_chk@plt>
  401a19:	bf 03 00 00 00       	mov    $0x3,%edi
  401a1e:	e8 59 04 00 00       	callq  401e7c <validate>
  401a23:	eb 21                	jmp    401a46 <touch3+0x64>
  401a25:	48 89 da             	mov    %rbx,%rdx
  401a28:	be 78 33 40 00       	mov    $0x403378,%esi
  401a2d:	bf 01 00 00 00       	mov    $0x1,%edi
  401a32:	b8 00 00 00 00       	mov    $0x0,%eax
  401a37:	e8 c4 f3 ff ff       	callq  400e00 <__printf_chk@plt>
  401a3c:	bf 03 00 00 00       	mov    $0x3,%edi
  401a41:	e8 f8 04 00 00       	callq  401f3e <fail>
  401a46:	bf 00 00 00 00       	mov    $0x0,%edi
  401a4b:	e8 00 f4 ff ff       	callq  400e50 <exit@plt>

0000000000401a50 <test>:
  401a50:	48 83 ec 08          	sub    $0x8,%rsp
  401a54:	b8 00 00 00 00       	mov    $0x0,%eax
  401a59:	e8 31 fe ff ff       	callq  40188f <getbuf>
  401a5e:	89 c2                	mov    %eax,%edx
  401a60:	be a0 33 40 00       	mov    $0x4033a0,%esi
  401a65:	bf 01 00 00 00       	mov    $0x1,%edi
  401a6a:	b8 00 00 00 00       	mov    $0x0,%eax
  401a6f:	e8 8c f3 ff ff       	callq  400e00 <__printf_chk@plt>
  401a74:	48 83 c4 08          	add    $0x8,%rsp
  401a78:	c3                   	retq   

0000000000401a79 <start_farm>:
  401a79:	b8 01 00 00 00       	mov    $0x1,%eax
  401a7e:	c3                   	retq   

0000000000401a7f <addval_470>:
  401a7f:	8d 87 48 89 c7 90    	lea    -0x6f3876b8(%rdi),%eax
  401a85:	c3                   	retq   

0000000000401a86 <addval_426>:
  401a86:	8d 87 58 90 90 90    	lea    -0x6f6f6fa8(%rdi),%eax
  401a8c:	c3                   	retq   

0000000000401a8d <getval_167>:
  401a8d:	b8 48 89 c7 c3       	mov    $0xc3c78948,%eax
  401a92:	c3                   	retq   

0000000000401a93 <getval_248>:
  401a93:	b8 48 89 c7 92       	mov    $0x92c78948,%eax
  401a98:	c3                   	retq   

0000000000401a99 <setval_340>:
  401a99:	c7 07 c8 89 c7 c3    	movl   $0xc3c789c8,(%rdi)
  401a9f:	c3                   	retq   

0000000000401aa0 <setval_128>:
  401aa0:	c7 07 58 90 90 c3    	movl   $0xc3909058,(%rdi)
  401aa6:	c3                   	retq   

0000000000401aa7 <getval_464>:
  401aa7:	b8 eb bd 07 50       	mov    $0x5007bdeb,%eax
  401aac:	c3                   	retq   

0000000000401aad <getval_478>:
  401aad:	b8 1a b5 0b 48       	mov    $0x480bb51a,%eax
  401ab2:	c3                   	retq   

0000000000401ab3 <mid_farm>:
  401ab3:	b8 01 00 00 00       	mov    $0x1,%eax
  401ab8:	c3                   	retq   

0000000000401ab9 <add_xy>:
  401ab9:	48 8d 04 37          	lea    (%rdi,%rsi,1),%rax
  401abd:	c3                   	retq   

0000000000401abe <getval_191>:
  401abe:	b8 48 89 e0 94       	mov    $0x94e08948,%eax
  401ac3:	c3                   	retq   

0000000000401ac4 <getval_273>:
  401ac4:	b8 81 c1 90 90       	mov    $0x9090c181,%eax
  401ac9:	c3                   	retq   

0000000000401aca <addval_400>:
  401aca:	8d 87 89 c1 c7 36    	lea    0x36c7c189(%rdi),%eax
  401ad0:	c3                   	retq   

0000000000401ad1 <addval_149>:
  401ad1:	8d 87 89 ca 90 90    	lea    -0x6f6f3577(%rdi),%eax
  401ad7:	c3                   	retq   

0000000000401ad8 <setval_142>:
  401ad8:	c7 07 7c 95 99 d6    	movl   $0xd699957c,(%rdi)
  401ade:	c3                   	retq   

0000000000401adf <getval_178>:
  401adf:	b8 09 d6 08 d2       	mov    $0xd208d609,%eax
  401ae4:	c3                   	retq   

0000000000401ae5 <getval_194>:
  401ae5:	b8 48 89 e0 c7       	mov    $0xc7e08948,%eax
  401aea:	c3                   	retq   

0000000000401aeb <setval_435>:
  401aeb:	c7 07 55 e2 8b d6    	movl   $0xd68be255,(%rdi)
  401af1:	c3                   	retq   

0000000000401af2 <getval_196>:
  401af2:	b8 89 c1 48 c9       	mov    $0xc948c189,%eax
  401af7:	c3                   	retq   

0000000000401af8 <getval_251>:
  401af8:	b8 89 c1 08 db       	mov    $0xdb08c189,%eax
  401afd:	c3                   	retq   

0000000000401afe <setval_105>:
  401afe:	c7 07 89 ca 60 c0    	movl   $0xc060ca89,(%rdi)
  401b04:	c3                   	retq   

0000000000401b05 <getval_476>:
  401b05:	b8 40 89 e0 c3       	mov    $0xc3e08940,%eax
  401b0a:	c3                   	retq   

0000000000401b0b <getval_283>:
  401b0b:	b8 72 48 89 e0       	mov    $0xe0894872,%eax
  401b10:	c3                   	retq   

0000000000401b11 <getval_190>:
  401b11:	b8 48 89 e0 c3       	mov    $0xc3e08948,%eax
  401b16:	c3                   	retq   

0000000000401b17 <addval_179>:
  401b17:	8d 87 89 c1 38 c0    	lea    -0x3fc73e77(%rdi),%eax
  401b1d:	c3                   	retq   

0000000000401b1e <addval_431>:
  401b1e:	8d 87 89 ca 28 d2    	lea    -0x2dd73577(%rdi),%eax
  401b24:	c3                   	retq   

0000000000401b25 <getval_123>:
  401b25:	b8 89 ca 00 db       	mov    $0xdb00ca89,%eax
  401b2a:	c3                   	retq   

0000000000401b2b <getval_424>:
  401b2b:	b8 af 48 8d e0       	mov    $0xe08d48af,%eax
  401b30:	c3                   	retq   

0000000000401b31 <addval_430>:
  401b31:	8d 87 c9 d6 90 c3    	lea    -0x3c6f2937(%rdi),%eax
  401b37:	c3                   	retq   

0000000000401b38 <addval_317>:
  401b38:	8d 87 f1 89 ca 91    	lea    -0x6e35760f(%rdi),%eax
  401b3e:	c3                   	retq   

0000000000401b3f <addval_192>:
  401b3f:	8d 87 89 c1 78 c0    	lea    -0x3f873e77(%rdi),%eax
  401b45:	c3                   	retq   

0000000000401b46 <setval_349>:
  401b46:	c7 07 60 40 89 e0    	movl   $0xe0894060,(%rdi)
  401b4c:	c3                   	retq   

0000000000401b4d <getval_224>:
  401b4d:	b8 c9 c1 20 c9       	mov    $0xc920c1c9,%eax
  401b52:	c3                   	retq   

0000000000401b53 <addval_378>:
  401b53:	8d 87 89 ca 28 c9    	lea    -0x36d73577(%rdi),%eax
  401b59:	c3                   	retq   

0000000000401b5a <addval_242>:
  401b5a:	8d 87 89 c1 91 90    	lea    -0x6f6e3e77(%rdi),%eax
  401b60:	c3                   	retq   

0000000000401b61 <setval_116>:
  401b61:	c7 07 88 d6 38 c0    	movl   $0xc038d688,(%rdi)
  401b67:	c3                   	retq   

0000000000401b68 <addval_303>:
  401b68:	8d 87 89 ca 08 d2    	lea    -0x2df73577(%rdi),%eax
  401b6e:	c3                   	retq   

0000000000401b6f <setval_471>:
  401b6f:	c7 07 0c 48 8b e0    	movl   $0xe08b480c,(%rdi)
  401b75:	c3                   	retq   

0000000000401b76 <setval_274>:
  401b76:	c7 07 89 d6 90 90    	movl   $0x9090d689,(%rdi)
  401b7c:	c3                   	retq   

0000000000401b7d <addval_327>:
  401b7d:	8d 87 7a 89 d6 90    	lea    -0x6f297686(%rdi),%eax
  401b83:	c3                   	retq   

0000000000401b84 <getval_412>:
  401b84:	b8 c9 ca 08 c9       	mov    $0xc908cac9,%eax
  401b89:	c3                   	retq   

0000000000401b8a <addval_377>:
  401b8a:	8d 87 89 d6 18 db    	lea    -0x24e72977(%rdi),%eax
  401b90:	c3                   	retq   

0000000000401b91 <end_farm>:
  401b91:	b8 01 00 00 00       	mov    $0x1,%eax
  401b96:	c3                   	retq   

0000000000401b97 <save_char>:
  401b97:	8b 05 a7 45 20 00    	mov    0x2045a7(%rip),%eax        # 606144 <gets_cnt>
  401b9d:	3d ff 03 00 00       	cmp    $0x3ff,%eax
  401ba2:	7f 49                	jg     401bed <save_char+0x56>
  401ba4:	8d 14 40             	lea    (%rax,%rax,2),%edx
  401ba7:	89 f9                	mov    %edi,%ecx
  401ba9:	c0 e9 04             	shr    $0x4,%cl
  401bac:	83 e1 0f             	and    $0xf,%ecx
  401baf:	0f b6 b1 c0 36 40 00 	movzbl 0x4036c0(%rcx),%esi
  401bb6:	48 63 ca             	movslq %edx,%rcx
  401bb9:	40 88 b1 40 55 60 00 	mov    %sil,0x605540(%rcx)
  401bc0:	8d 4a 01             	lea    0x1(%rdx),%ecx
  401bc3:	83 e7 0f             	and    $0xf,%edi
  401bc6:	0f b6 b7 c0 36 40 00 	movzbl 0x4036c0(%rdi),%esi
  401bcd:	48 63 c9             	movslq %ecx,%rcx
  401bd0:	40 88 b1 40 55 60 00 	mov    %sil,0x605540(%rcx)
  401bd7:	83 c2 02             	add    $0x2,%edx
  401bda:	48 63 d2             	movslq %edx,%rdx
  401bdd:	c6 82 40 55 60 00 20 	movb   $0x20,0x605540(%rdx)
  401be4:	83 c0 01             	add    $0x1,%eax
  401be7:	89 05 57 45 20 00    	mov    %eax,0x204557(%rip)        # 606144 <gets_cnt>
  401bed:	f3 c3                	repz retq 

0000000000401bef <save_term>:
  401bef:	8b 05 4f 45 20 00    	mov    0x20454f(%rip),%eax        # 606144 <gets_cnt>
  401bf5:	8d 04 40             	lea    (%rax,%rax,2),%eax
  401bf8:	48 98                	cltq   
  401bfa:	c6 80 40 55 60 00 00 	movb   $0x0,0x605540(%rax)
  401c01:	c3                   	retq   

0000000000401c02 <check_fail>:
  401c02:	48 83 ec 08          	sub    $0x8,%rsp
  401c06:	0f be 15 3b 45 20 00 	movsbl 0x20453b(%rip),%edx        # 606148 <target_prefix>
  401c0d:	41 b8 40 55 60 00    	mov    $0x605540,%r8d
  401c13:	8b 0d ff 38 20 00    	mov    0x2038ff(%rip),%ecx        # 605518 <check_level>
  401c19:	be c3 33 40 00       	mov    $0x4033c3,%esi
  401c1e:	bf 01 00 00 00       	mov    $0x1,%edi
  401c23:	b8 00 00 00 00       	mov    $0x0,%eax
  401c28:	e8 d3 f1 ff ff       	callq  400e00 <__printf_chk@plt>
  401c2d:	bf 01 00 00 00       	mov    $0x1,%edi
  401c32:	e8 19 f2 ff ff       	callq  400e50 <exit@plt>

0000000000401c37 <Gets>:
  401c37:	41 54                	push   %r12
  401c39:	55                   	push   %rbp
  401c3a:	53                   	push   %rbx
  401c3b:	49 89 fc             	mov    %rdi,%r12
  401c3e:	c7 05 fc 44 20 00 00 	movl   $0x0,0x2044fc(%rip)        # 606144 <gets_cnt>
  401c45:	00 00 00 
  401c48:	48 89 fb             	mov    %rdi,%rbx
  401c4b:	eb 11                	jmp    401c5e <Gets+0x27>
  401c4d:	48 8d 6b 01          	lea    0x1(%rbx),%rbp
  401c51:	88 03                	mov    %al,(%rbx)
  401c53:	0f b6 f8             	movzbl %al,%edi
  401c56:	e8 3c ff ff ff       	callq  401b97 <save_char>
  401c5b:	48 89 eb             	mov    %rbp,%rbx
  401c5e:	48 8b 3d ab 38 20 00 	mov    0x2038ab(%rip),%rdi        # 605510 <infile>
  401c65:	e8 66 f1 ff ff       	callq  400dd0 <_IO_getc@plt>
  401c6a:	83 f8 ff             	cmp    $0xffffffff,%eax
  401c6d:	74 05                	je     401c74 <Gets+0x3d>
  401c6f:	83 f8 0a             	cmp    $0xa,%eax
  401c72:	75 d9                	jne    401c4d <Gets+0x16>
  401c74:	c6 03 00             	movb   $0x0,(%rbx)
  401c77:	b8 00 00 00 00       	mov    $0x0,%eax
  401c7c:	e8 6e ff ff ff       	callq  401bef <save_term>
  401c81:	4c 89 e0             	mov    %r12,%rax
  401c84:	5b                   	pop    %rbx
  401c85:	5d                   	pop    %rbp
  401c86:	41 5c                	pop    %r12
  401c88:	c3                   	retq   

0000000000401c89 <notify_server>:
  401c89:	53                   	push   %rbx
  401c8a:	48 81 ec 10 40 00 00 	sub    $0x4010,%rsp
  401c91:	64 48 8b 04 25 28 00 	mov    %fs:0x28,%rax
  401c98:	00 00 
  401c9a:	48 89 84 24 08 40 00 	mov    %rax,0x4008(%rsp)
  401ca1:	00 
  401ca2:	31 c0                	xor    %eax,%eax
  401ca4:	83 3d 7d 38 20 00 00 	cmpl   $0x0,0x20387d(%rip)        # 605528 <is_checker>
  401cab:	0f 85 aa 01 00 00    	jne    401e5b <notify_server+0x1d2>
  401cb1:	89 fb                	mov    %edi,%ebx
  401cb3:	8b 05 8b 44 20 00    	mov    0x20448b(%rip),%eax        # 606144 <gets_cnt>
  401cb9:	83 c0 64             	add    $0x64,%eax
  401cbc:	3d 00 20 00 00       	cmp    $0x2000,%eax
  401cc1:	7e 1e                	jle    401ce1 <notify_server+0x58>
  401cc3:	be f8 34 40 00       	mov    $0x4034f8,%esi
  401cc8:	bf 01 00 00 00       	mov    $0x1,%edi
  401ccd:	b8 00 00 00 00       	mov    $0x0,%eax
  401cd2:	e8 29 f1 ff ff       	callq  400e00 <__printf_chk@plt>
  401cd7:	bf 01 00 00 00       	mov    $0x1,%edi
  401cdc:	e8 6f f1 ff ff       	callq  400e50 <exit@plt>
  401ce1:	0f be 05 60 44 20 00 	movsbl 0x204460(%rip),%eax        # 606148 <target_prefix>
  401ce8:	83 3d b9 37 20 00 00 	cmpl   $0x0,0x2037b9(%rip)        # 6054a8 <notify>
  401cef:	74 08                	je     401cf9 <notify_server+0x70>
  401cf1:	8b 15 29 38 20 00    	mov    0x203829(%rip),%edx        # 605520 <authkey>
  401cf7:	eb 05                	jmp    401cfe <notify_server+0x75>
  401cf9:	ba ff ff ff ff       	mov    $0xffffffff,%edx
  401cfe:	85 db                	test   %ebx,%ebx
  401d00:	74 08                	je     401d0a <notify_server+0x81>
  401d02:	41 b9 d9 33 40 00    	mov    $0x4033d9,%r9d
  401d08:	eb 06                	jmp    401d10 <notify_server+0x87>
  401d0a:	41 b9 de 33 40 00    	mov    $0x4033de,%r9d
  401d10:	68 40 55 60 00       	pushq  $0x605540
  401d15:	56                   	push   %rsi
  401d16:	50                   	push   %rax
  401d17:	52                   	push   %rdx
  401d18:	44 8b 05 49 34 20 00 	mov    0x203449(%rip),%r8d        # 605168 <target_id>
  401d1f:	b9 e3 33 40 00       	mov    $0x4033e3,%ecx
  401d24:	ba 00 20 00 00       	mov    $0x2000,%edx
  401d29:	be 01 00 00 00       	mov    $0x1,%esi
  401d2e:	48 8d 7c 24 20       	lea    0x20(%rsp),%rdi
  401d33:	b8 00 00 00 00       	mov    $0x0,%eax
  401d38:	e8 43 f1 ff ff       	callq  400e80 <__sprintf_chk@plt>
  401d3d:	48 83 c4 20          	add    $0x20,%rsp
  401d41:	83 3d 60 37 20 00 00 	cmpl   $0x0,0x203760(%rip)        # 6054a8 <notify>
  401d48:	0f 84 81 00 00 00    	je     401dcf <notify_server+0x146>
  401d4e:	85 db                	test   %ebx,%ebx
  401d50:	74 6e                	je     401dc0 <notify_server+0x137>
  401d52:	4c 8d 8c 24 00 20 00 	lea    0x2000(%rsp),%r9
  401d59:	00 
  401d5a:	41 b8 00 00 00 00    	mov    $0x0,%r8d
  401d60:	48 89 e1             	mov    %rsp,%rcx
  401d63:	48 8b 15 06 34 20 00 	mov    0x203406(%rip),%rdx        # 605170 <lab>
  401d6a:	48 8b 35 07 34 20 00 	mov    0x203407(%rip),%rsi        # 605178 <course>
  401d71:	48 8b 3d e8 33 20 00 	mov    0x2033e8(%rip),%rdi        # 605160 <user_id>
  401d78:	e8 ef 10 00 00       	callq  402e6c <driver_post>
  401d7d:	85 c0                	test   %eax,%eax
  401d7f:	79 26                	jns    401da7 <notify_server+0x11e>
  401d81:	48 8d 94 24 00 20 00 	lea    0x2000(%rsp),%rdx
  401d88:	00 
  401d89:	be ff 33 40 00       	mov    $0x4033ff,%esi
  401d8e:	bf 01 00 00 00       	mov    $0x1,%edi
  401d93:	b8 00 00 00 00       	mov    $0x0,%eax
  401d98:	e8 63 f0 ff ff       	callq  400e00 <__printf_chk@plt>
  401d9d:	bf 01 00 00 00       	mov    $0x1,%edi
  401da2:	e8 a9 f0 ff ff       	callq  400e50 <exit@plt>
  401da7:	bf 28 35 40 00       	mov    $0x403528,%edi
  401dac:	e8 1f ef ff ff       	callq  400cd0 <puts@plt>
  401db1:	bf 0b 34 40 00       	mov    $0x40340b,%edi
  401db6:	e8 15 ef ff ff       	callq  400cd0 <puts@plt>
  401dbb:	e9 9b 00 00 00       	jmpq   401e5b <notify_server+0x1d2>
  401dc0:	bf 15 34 40 00       	mov    $0x403415,%edi
  401dc5:	e8 06 ef ff ff       	callq  400cd0 <puts@plt>
  401dca:	e9 8c 00 00 00       	jmpq   401e5b <notify_server+0x1d2>
  401dcf:	85 db                	test   %ebx,%ebx
  401dd1:	74 07                	je     401dda <notify_server+0x151>
  401dd3:	ba d9 33 40 00       	mov    $0x4033d9,%edx
  401dd8:	eb 05                	jmp    401ddf <notify_server+0x156>
  401dda:	ba de 33 40 00       	mov    $0x4033de,%edx
  401ddf:	be 60 35 40 00       	mov    $0x403560,%esi
  401de4:	bf 01 00 00 00       	mov    $0x1,%edi
  401de9:	b8 00 00 00 00       	mov    $0x0,%eax
  401dee:	e8 0d f0 ff ff       	callq  400e00 <__printf_chk@plt>
  401df3:	48 8b 15 66 33 20 00 	mov    0x203366(%rip),%rdx        # 605160 <user_id>
  401dfa:	be 1c 34 40 00       	mov    $0x40341c,%esi
  401dff:	bf 01 00 00 00       	mov    $0x1,%edi
  401e04:	b8 00 00 00 00       	mov    $0x0,%eax
  401e09:	e8 f2 ef ff ff       	callq  400e00 <__printf_chk@plt>
  401e0e:	48 8b 15 63 33 20 00 	mov    0x203363(%rip),%rdx        # 605178 <course>
  401e15:	be 29 34 40 00       	mov    $0x403429,%esi
  401e1a:	bf 01 00 00 00       	mov    $0x1,%edi
  401e1f:	b8 00 00 00 00       	mov    $0x0,%eax
  401e24:	e8 d7 ef ff ff       	callq  400e00 <__printf_chk@plt>
  401e29:	48 8b 15 40 33 20 00 	mov    0x203340(%rip),%rdx        # 605170 <lab>
  401e30:	be 35 34 40 00       	mov    $0x403435,%esi
  401e35:	bf 01 00 00 00       	mov    $0x1,%edi
  401e3a:	b8 00 00 00 00       	mov    $0x0,%eax
  401e3f:	e8 bc ef ff ff       	callq  400e00 <__printf_chk@plt>
  401e44:	48 89 e2             	mov    %rsp,%rdx
  401e47:	be 3e 34 40 00       	mov    $0x40343e,%esi
  401e4c:	bf 01 00 00 00       	mov    $0x1,%edi
  401e51:	b8 00 00 00 00       	mov    $0x0,%eax
  401e56:	e8 a5 ef ff ff       	callq  400e00 <__printf_chk@plt>
  401e5b:	48 8b 84 24 08 40 00 	mov    0x4008(%rsp),%rax
  401e62:	00 
  401e63:	64 48 33 04 25 28 00 	xor    %fs:0x28,%rax
  401e6a:	00 00 
  401e6c:	74 05                	je     401e73 <notify_server+0x1ea>
  401e6e:	e8 7d ee ff ff       	callq  400cf0 <__stack_chk_fail@plt>
  401e73:	48 81 c4 10 40 00 00 	add    $0x4010,%rsp
  401e7a:	5b                   	pop    %rbx
  401e7b:	c3                   	retq   

0000000000401e7c <validate>:
  401e7c:	53                   	push   %rbx
  401e7d:	89 fb                	mov    %edi,%ebx
  401e7f:	83 3d a2 36 20 00 00 	cmpl   $0x0,0x2036a2(%rip)        # 605528 <is_checker>
  401e86:	74 6b                	je     401ef3 <validate+0x77>
  401e88:	39 3d 8e 36 20 00    	cmp    %edi,0x20368e(%rip)        # 60551c <vlevel>
  401e8e:	74 14                	je     401ea4 <validate+0x28>
  401e90:	bf 4a 34 40 00       	mov    $0x40344a,%edi
  401e95:	e8 36 ee ff ff       	callq  400cd0 <puts@plt>
  401e9a:	b8 00 00 00 00       	mov    $0x0,%eax
  401e9f:	e8 5e fd ff ff       	callq  401c02 <check_fail>
  401ea4:	8b 15 6e 36 20 00    	mov    0x20366e(%rip),%edx        # 605518 <check_level>
  401eaa:	39 d7                	cmp    %edx,%edi
  401eac:	74 20                	je     401ece <validate+0x52>
  401eae:	89 f9                	mov    %edi,%ecx
  401eb0:	be 88 35 40 00       	mov    $0x403588,%esi
  401eb5:	bf 01 00 00 00       	mov    $0x1,%edi
  401eba:	b8 00 00 00 00       	mov    $0x0,%eax
  401ebf:	e8 3c ef ff ff       	callq  400e00 <__printf_chk@plt>
  401ec4:	b8 00 00 00 00       	mov    $0x0,%eax
  401ec9:	e8 34 fd ff ff       	callq  401c02 <check_fail>
  401ece:	0f be 15 73 42 20 00 	movsbl 0x204273(%rip),%edx        # 606148 <target_prefix>
  401ed5:	41 b8 40 55 60 00    	mov    $0x605540,%r8d
  401edb:	89 f9                	mov    %edi,%ecx
  401edd:	be 68 34 40 00       	mov    $0x403468,%esi
  401ee2:	bf 01 00 00 00       	mov    $0x1,%edi
  401ee7:	b8 00 00 00 00       	mov    $0x0,%eax
  401eec:	e8 0f ef ff ff       	callq  400e00 <__printf_chk@plt>
  401ef1:	eb 49                	jmp    401f3c <validate+0xc0>
  401ef3:	3b 3d 23 36 20 00    	cmp    0x203623(%rip),%edi        # 60551c <vlevel>
  401ef9:	74 18                	je     401f13 <validate+0x97>
  401efb:	bf 4a 34 40 00       	mov    $0x40344a,%edi
  401f00:	e8 cb ed ff ff       	callq  400cd0 <puts@plt>
  401f05:	89 de                	mov    %ebx,%esi
  401f07:	bf 00 00 00 00       	mov    $0x0,%edi
  401f0c:	e8 78 fd ff ff       	callq  401c89 <notify_server>
  401f11:	eb 29                	jmp    401f3c <validate+0xc0>
  401f13:	0f be 0d 2e 42 20 00 	movsbl 0x20422e(%rip),%ecx        # 606148 <target_prefix>
  401f1a:	89 fa                	mov    %edi,%edx
  401f1c:	be b0 35 40 00       	mov    $0x4035b0,%esi
  401f21:	bf 01 00 00 00       	mov    $0x1,%edi
  401f26:	b8 00 00 00 00       	mov    $0x0,%eax
  401f2b:	e8 d0 ee ff ff       	callq  400e00 <__printf_chk@plt>
  401f30:	89 de                	mov    %ebx,%esi
  401f32:	bf 01 00 00 00       	mov    $0x1,%edi
  401f37:	e8 4d fd ff ff       	callq  401c89 <notify_server>
  401f3c:	5b                   	pop    %rbx
  401f3d:	c3                   	retq   

0000000000401f3e <fail>:
  401f3e:	48 83 ec 08          	sub    $0x8,%rsp
  401f42:	83 3d df 35 20 00 00 	cmpl   $0x0,0x2035df(%rip)        # 605528 <is_checker>
  401f49:	74 0a                	je     401f55 <fail+0x17>
  401f4b:	b8 00 00 00 00       	mov    $0x0,%eax
  401f50:	e8 ad fc ff ff       	callq  401c02 <check_fail>
  401f55:	89 fe                	mov    %edi,%esi
  401f57:	bf 00 00 00 00       	mov    $0x0,%edi
  401f5c:	e8 28 fd ff ff       	callq  401c89 <notify_server>
  401f61:	48 83 c4 08          	add    $0x8,%rsp
  401f65:	c3                   	retq   

0000000000401f66 <bushandler>:
  401f66:	48 83 ec 08          	sub    $0x8,%rsp
  401f6a:	83 3d b7 35 20 00 00 	cmpl   $0x0,0x2035b7(%rip)        # 605528 <is_checker>
  401f71:	74 14                	je     401f87 <bushandler+0x21>
  401f73:	bf 7d 34 40 00       	mov    $0x40347d,%edi
  401f78:	e8 53 ed ff ff       	callq  400cd0 <puts@plt>
  401f7d:	b8 00 00 00 00       	mov    $0x0,%eax
  401f82:	e8 7b fc ff ff       	callq  401c02 <check_fail>
  401f87:	bf e8 35 40 00       	mov    $0x4035e8,%edi
  401f8c:	e8 3f ed ff ff       	callq  400cd0 <puts@plt>
  401f91:	bf 87 34 40 00       	mov    $0x403487,%edi
  401f96:	e8 35 ed ff ff       	callq  400cd0 <puts@plt>
  401f9b:	be 00 00 00 00       	mov    $0x0,%esi
  401fa0:	bf 00 00 00 00       	mov    $0x0,%edi
  401fa5:	e8 df fc ff ff       	callq  401c89 <notify_server>
  401faa:	bf 01 00 00 00       	mov    $0x1,%edi
  401faf:	e8 9c ee ff ff       	callq  400e50 <exit@plt>

0000000000401fb4 <seghandler>:
  401fb4:	48 83 ec 08          	sub    $0x8,%rsp
  401fb8:	83 3d 69 35 20 00 00 	cmpl   $0x0,0x203569(%rip)        # 605528 <is_checker>
  401fbf:	74 14                	je     401fd5 <seghandler+0x21>
  401fc1:	bf 9d 34 40 00       	mov    $0x40349d,%edi
  401fc6:	e8 05 ed ff ff       	callq  400cd0 <puts@plt>
  401fcb:	b8 00 00 00 00       	mov    $0x0,%eax
  401fd0:	e8 2d fc ff ff       	callq  401c02 <check_fail>
  401fd5:	bf 08 36 40 00       	mov    $0x403608,%edi
  401fda:	e8 f1 ec ff ff       	callq  400cd0 <puts@plt>
  401fdf:	bf 87 34 40 00       	mov    $0x403487,%edi
  401fe4:	e8 e7 ec ff ff       	callq  400cd0 <puts@plt>
  401fe9:	be 00 00 00 00       	mov    $0x0,%esi
  401fee:	bf 00 00 00 00       	mov    $0x0,%edi
  401ff3:	e8 91 fc ff ff       	callq  401c89 <notify_server>
  401ff8:	bf 01 00 00 00       	mov    $0x1,%edi
  401ffd:	e8 4e ee ff ff       	callq  400e50 <exit@plt>

0000000000402002 <illegalhandler>:
  402002:	48 83 ec 08          	sub    $0x8,%rsp
  402006:	83 3d 1b 35 20 00 00 	cmpl   $0x0,0x20351b(%rip)        # 605528 <is_checker>
  40200d:	74 14                	je     402023 <illegalhandler+0x21>
  40200f:	bf b0 34 40 00       	mov    $0x4034b0,%edi
  402014:	e8 b7 ec ff ff       	callq  400cd0 <puts@plt>
  402019:	b8 00 00 00 00       	mov    $0x0,%eax
  40201e:	e8 df fb ff ff       	callq  401c02 <check_fail>
  402023:	bf 30 36 40 00       	mov    $0x403630,%edi
  402028:	e8 a3 ec ff ff       	callq  400cd0 <puts@plt>
  40202d:	bf 87 34 40 00       	mov    $0x403487,%edi
  402032:	e8 99 ec ff ff       	callq  400cd0 <puts@plt>
  402037:	be 00 00 00 00       	mov    $0x0,%esi
  40203c:	bf 00 00 00 00       	mov    $0x0,%edi
  402041:	e8 43 fc ff ff       	callq  401c89 <notify_server>
  402046:	bf 01 00 00 00       	mov    $0x1,%edi
  40204b:	e8 00 ee ff ff       	callq  400e50 <exit@plt>

0000000000402050 <sigalrmhandler>:
  402050:	48 83 ec 08          	sub    $0x8,%rsp
  402054:	83 3d cd 34 20 00 00 	cmpl   $0x0,0x2034cd(%rip)        # 605528 <is_checker>
  40205b:	74 14                	je     402071 <sigalrmhandler+0x21>
  40205d:	bf c4 34 40 00       	mov    $0x4034c4,%edi
  402062:	e8 69 ec ff ff       	callq  400cd0 <puts@plt>
  402067:	b8 00 00 00 00       	mov    $0x0,%eax
  40206c:	e8 91 fb ff ff       	callq  401c02 <check_fail>
  402071:	ba 05 00 00 00       	mov    $0x5,%edx
  402076:	be 60 36 40 00       	mov    $0x403660,%esi
  40207b:	bf 01 00 00 00       	mov    $0x1,%edi
  402080:	b8 00 00 00 00       	mov    $0x0,%eax
  402085:	e8 76 ed ff ff       	callq  400e00 <__printf_chk@plt>
  40208a:	be 00 00 00 00       	mov    $0x0,%esi
  40208f:	bf 00 00 00 00       	mov    $0x0,%edi
  402094:	e8 f0 fb ff ff       	callq  401c89 <notify_server>
  402099:	bf 01 00 00 00       	mov    $0x1,%edi
  40209e:	e8 ad ed ff ff       	callq  400e50 <exit@plt>

00000000004020a3 <launch>:
  4020a3:	55                   	push   %rbp
  4020a4:	48 89 e5             	mov    %rsp,%rbp
  4020a7:	48 83 ec 10          	sub    $0x10,%rsp
  4020ab:	48 89 fa             	mov    %rdi,%rdx
  4020ae:	64 48 8b 04 25 28 00 	mov    %fs:0x28,%rax
  4020b5:	00 00 
  4020b7:	48 89 45 f8          	mov    %rax,-0x8(%rbp)
  4020bb:	31 c0                	xor    %eax,%eax
  4020bd:	48 8d 47 1e          	lea    0x1e(%rdi),%rax
  4020c1:	48 83 e0 f0          	and    $0xfffffffffffffff0,%rax
  4020c5:	48 29 c4             	sub    %rax,%rsp
  4020c8:	48 8d 7c 24 0f       	lea    0xf(%rsp),%rdi
  4020cd:	48 83 e7 f0          	and    $0xfffffffffffffff0,%rdi
  4020d1:	be f4 00 00 00       	mov    $0xf4,%esi
  4020d6:	e8 35 ec ff ff       	callq  400d10 <memset@plt>
  4020db:	48 8b 05 de 33 20 00 	mov    0x2033de(%rip),%rax        # 6054c0 <stdin@@GLIBC_2.2.5>
  4020e2:	48 39 05 27 34 20 00 	cmp    %rax,0x203427(%rip)        # 605510 <infile>
  4020e9:	75 14                	jne    4020ff <launch+0x5c>
  4020eb:	be cc 34 40 00       	mov    $0x4034cc,%esi
  4020f0:	bf 01 00 00 00       	mov    $0x1,%edi
  4020f5:	b8 00 00 00 00       	mov    $0x0,%eax
  4020fa:	e8 01 ed ff ff       	callq  400e00 <__printf_chk@plt>
  4020ff:	c7 05 13 34 20 00 00 	movl   $0x0,0x203413(%rip)        # 60551c <vlevel>
  402106:	00 00 00 
  402109:	b8 00 00 00 00       	mov    $0x0,%eax
  40210e:	e8 3d f9 ff ff       	callq  401a50 <test>
  402113:	83 3d 0e 34 20 00 00 	cmpl   $0x0,0x20340e(%rip)        # 605528 <is_checker>
  40211a:	74 14                	je     402130 <launch+0x8d>
  40211c:	bf d9 34 40 00       	mov    $0x4034d9,%edi
  402121:	e8 aa eb ff ff       	callq  400cd0 <puts@plt>
  402126:	b8 00 00 00 00       	mov    $0x0,%eax
  40212b:	e8 d2 fa ff ff       	callq  401c02 <check_fail>
  402130:	bf e4 34 40 00       	mov    $0x4034e4,%edi
  402135:	e8 96 eb ff ff       	callq  400cd0 <puts@plt>
  40213a:	48 8b 45 f8          	mov    -0x8(%rbp),%rax
  40213e:	64 48 33 04 25 28 00 	xor    %fs:0x28,%rax
  402145:	00 00 
  402147:	74 05                	je     40214e <launch+0xab>
  402149:	e8 a2 eb ff ff       	callq  400cf0 <__stack_chk_fail@plt>
  40214e:	c9                   	leaveq 
  40214f:	c3                   	retq   

0000000000402150 <stable_launch>:
  402150:	53                   	push   %rbx
  402151:	48 89 3d b0 33 20 00 	mov    %rdi,0x2033b0(%rip)        # 605508 <global_offset>
  402158:	41 b9 00 00 00 00    	mov    $0x0,%r9d
  40215e:	41 b8 00 00 00 00    	mov    $0x0,%r8d
  402164:	b9 32 01 00 00       	mov    $0x132,%ecx
  402169:	ba 07 00 00 00       	mov    $0x7,%edx
  40216e:	be 00 00 10 00       	mov    $0x100000,%esi
  402173:	bf 00 60 58 55       	mov    $0x55586000,%edi
  402178:	e8 83 eb ff ff       	callq  400d00 <mmap@plt>
  40217d:	48 89 c3             	mov    %rax,%rbx
  402180:	48 3d 00 60 58 55    	cmp    $0x55586000,%rax
  402186:	74 37                	je     4021bf <stable_launch+0x6f>
  402188:	be 00 00 10 00       	mov    $0x100000,%esi
  40218d:	48 89 c7             	mov    %rax,%rdi
  402190:	e8 5b ec ff ff       	callq  400df0 <munmap@plt>
  402195:	b9 00 60 58 55       	mov    $0x55586000,%ecx
  40219a:	ba 98 36 40 00       	mov    $0x403698,%edx
  40219f:	be 01 00 00 00       	mov    $0x1,%esi
  4021a4:	48 8b 3d 35 33 20 00 	mov    0x203335(%rip),%rdi        # 6054e0 <stderr@@GLIBC_2.2.5>
  4021ab:	b8 00 00 00 00       	mov    $0x0,%eax
  4021b0:	e8 bb ec ff ff       	callq  400e70 <__fprintf_chk@plt>
  4021b5:	bf 01 00 00 00       	mov    $0x1,%edi
  4021ba:	e8 91 ec ff ff       	callq  400e50 <exit@plt>
  4021bf:	48 8d 90 f8 ff 0f 00 	lea    0xffff8(%rax),%rdx
  4021c6:	48 89 15 83 3f 20 00 	mov    %rdx,0x203f83(%rip)        # 606150 <stack_top>
  4021cd:	48 89 e0             	mov    %rsp,%rax
  4021d0:	48 89 d4             	mov    %rdx,%rsp
  4021d3:	48 89 c2             	mov    %rax,%rdx
  4021d6:	48 89 15 23 33 20 00 	mov    %rdx,0x203323(%rip)        # 605500 <global_save_stack>
  4021dd:	48 8b 3d 24 33 20 00 	mov    0x203324(%rip),%rdi        # 605508 <global_offset>
  4021e4:	e8 ba fe ff ff       	callq  4020a3 <launch>
  4021e9:	48 8b 05 10 33 20 00 	mov    0x203310(%rip),%rax        # 605500 <global_save_stack>
  4021f0:	48 89 c4             	mov    %rax,%rsp
  4021f3:	be 00 00 10 00       	mov    $0x100000,%esi
  4021f8:	48 89 df             	mov    %rbx,%rdi
  4021fb:	e8 f0 eb ff ff       	callq  400df0 <munmap@plt>
  402200:	5b                   	pop    %rbx
  402201:	c3                   	retq   

0000000000402202 <rio_readinitb>:
  402202:	89 37                	mov    %esi,(%rdi)
  402204:	c7 47 04 00 00 00 00 	movl   $0x0,0x4(%rdi)
  40220b:	48 8d 47 10          	lea    0x10(%rdi),%rax
  40220f:	48 89 47 08          	mov    %rax,0x8(%rdi)
  402213:	c3                   	retq   

0000000000402214 <sigalrm_handler>:
  402214:	48 83 ec 08          	sub    $0x8,%rsp
  402218:	b9 00 00 00 00       	mov    $0x0,%ecx
  40221d:	ba d0 36 40 00       	mov    $0x4036d0,%edx
  402222:	be 01 00 00 00       	mov    $0x1,%esi
  402227:	48 8b 3d b2 32 20 00 	mov    0x2032b2(%rip),%rdi        # 6054e0 <stderr@@GLIBC_2.2.5>
  40222e:	b8 00 00 00 00       	mov    $0x0,%eax
  402233:	e8 38 ec ff ff       	callq  400e70 <__fprintf_chk@plt>
  402238:	bf 01 00 00 00       	mov    $0x1,%edi
  40223d:	e8 0e ec ff ff       	callq  400e50 <exit@plt>

0000000000402242 <rio_writen>:
  402242:	41 55                	push   %r13
  402244:	41 54                	push   %r12
  402246:	55                   	push   %rbp
  402247:	53                   	push   %rbx
  402248:	48 83 ec 08          	sub    $0x8,%rsp
  40224c:	41 89 fc             	mov    %edi,%r12d
  40224f:	48 89 f5             	mov    %rsi,%rbp
  402252:	49 89 d5             	mov    %rdx,%r13
  402255:	48 89 d3             	mov    %rdx,%rbx
  402258:	eb 28                	jmp    402282 <rio_writen+0x40>
  40225a:	48 89 da             	mov    %rbx,%rdx
  40225d:	48 89 ee             	mov    %rbp,%rsi
  402260:	44 89 e7             	mov    %r12d,%edi
  402263:	e8 78 ea ff ff       	callq  400ce0 <write@plt>
  402268:	48 85 c0             	test   %rax,%rax
  40226b:	7f 0f                	jg     40227c <rio_writen+0x3a>
  40226d:	e8 1e ea ff ff       	callq  400c90 <__errno_location@plt>
  402272:	83 38 04             	cmpl   $0x4,(%rax)
  402275:	75 15                	jne    40228c <rio_writen+0x4a>
  402277:	b8 00 00 00 00       	mov    $0x0,%eax
  40227c:	48 29 c3             	sub    %rax,%rbx
  40227f:	48 01 c5             	add    %rax,%rbp
  402282:	48 85 db             	test   %rbx,%rbx
  402285:	75 d3                	jne    40225a <rio_writen+0x18>
  402287:	4c 89 e8             	mov    %r13,%rax
  40228a:	eb 07                	jmp    402293 <rio_writen+0x51>
  40228c:	48 c7 c0 ff ff ff ff 	mov    $0xffffffffffffffff,%rax
  402293:	48 83 c4 08          	add    $0x8,%rsp
  402297:	5b                   	pop    %rbx
  402298:	5d                   	pop    %rbp
  402299:	41 5c                	pop    %r12
  40229b:	41 5d                	pop    %r13
  40229d:	c3                   	retq   

000000000040229e <rio_read>:
  40229e:	41 55                	push   %r13
  4022a0:	41 54                	push   %r12
  4022a2:	55                   	push   %rbp
  4022a3:	53                   	push   %rbx
  4022a4:	48 83 ec 08          	sub    $0x8,%rsp
  4022a8:	48 89 fb             	mov    %rdi,%rbx
  4022ab:	49 89 f5             	mov    %rsi,%r13
  4022ae:	49 89 d4             	mov    %rdx,%r12
  4022b1:	eb 2e                	jmp    4022e1 <rio_read+0x43>
  4022b3:	48 8d 6b 10          	lea    0x10(%rbx),%rbp
  4022b7:	8b 3b                	mov    (%rbx),%edi
  4022b9:	ba 00 20 00 00       	mov    $0x2000,%edx
  4022be:	48 89 ee             	mov    %rbp,%rsi
  4022c1:	e8 7a ea ff ff       	callq  400d40 <read@plt>
  4022c6:	89 43 04             	mov    %eax,0x4(%rbx)
  4022c9:	85 c0                	test   %eax,%eax
  4022cb:	79 0c                	jns    4022d9 <rio_read+0x3b>
  4022cd:	e8 be e9 ff ff       	callq  400c90 <__errno_location@plt>
  4022d2:	83 38 04             	cmpl   $0x4,(%rax)
  4022d5:	74 0a                	je     4022e1 <rio_read+0x43>
  4022d7:	eb 37                	jmp    402310 <rio_read+0x72>
  4022d9:	85 c0                	test   %eax,%eax
  4022db:	74 3c                	je     402319 <rio_read+0x7b>
  4022dd:	48 89 6b 08          	mov    %rbp,0x8(%rbx)
  4022e1:	8b 6b 04             	mov    0x4(%rbx),%ebp
  4022e4:	85 ed                	test   %ebp,%ebp
  4022e6:	7e cb                	jle    4022b3 <rio_read+0x15>
  4022e8:	89 e8                	mov    %ebp,%eax
  4022ea:	49 39 c4             	cmp    %rax,%r12
  4022ed:	77 03                	ja     4022f2 <rio_read+0x54>
  4022ef:	44 89 e5             	mov    %r12d,%ebp
  4022f2:	4c 63 e5             	movslq %ebp,%r12
  4022f5:	48 8b 73 08          	mov    0x8(%rbx),%rsi
  4022f9:	4c 89 e2             	mov    %r12,%rdx
  4022fc:	4c 89 ef             	mov    %r13,%rdi
  4022ff:	e8 9c ea ff ff       	callq  400da0 <memcpy@plt>
  402304:	4c 01 63 08          	add    %r12,0x8(%rbx)
  402308:	29 6b 04             	sub    %ebp,0x4(%rbx)
  40230b:	4c 89 e0             	mov    %r12,%rax
  40230e:	eb 0e                	jmp    40231e <rio_read+0x80>
  402310:	48 c7 c0 ff ff ff ff 	mov    $0xffffffffffffffff,%rax
  402317:	eb 05                	jmp    40231e <rio_read+0x80>
  402319:	b8 00 00 00 00       	mov    $0x0,%eax
  40231e:	48 83 c4 08          	add    $0x8,%rsp
  402322:	5b                   	pop    %rbx
  402323:	5d                   	pop    %rbp
  402324:	41 5c                	pop    %r12
  402326:	41 5d                	pop    %r13
  402328:	c3                   	retq   

0000000000402329 <rio_readlineb>:
  402329:	41 55                	push   %r13
  40232b:	41 54                	push   %r12
  40232d:	55                   	push   %rbp
  40232e:	53                   	push   %rbx
  40232f:	48 83 ec 18          	sub    $0x18,%rsp
  402333:	49 89 fd             	mov    %rdi,%r13
  402336:	48 89 f5             	mov    %rsi,%rbp
  402339:	49 89 d4             	mov    %rdx,%r12
  40233c:	64 48 8b 04 25 28 00 	mov    %fs:0x28,%rax
  402343:	00 00 
  402345:	48 89 44 24 08       	mov    %rax,0x8(%rsp)
  40234a:	31 c0                	xor    %eax,%eax
  40234c:	bb 01 00 00 00       	mov    $0x1,%ebx
  402351:	eb 3f                	jmp    402392 <rio_readlineb+0x69>
  402353:	ba 01 00 00 00       	mov    $0x1,%edx
  402358:	48 8d 74 24 07       	lea    0x7(%rsp),%rsi
  40235d:	4c 89 ef             	mov    %r13,%rdi
  402360:	e8 39 ff ff ff       	callq  40229e <rio_read>
  402365:	83 f8 01             	cmp    $0x1,%eax
  402368:	75 15                	jne    40237f <rio_readlineb+0x56>
  40236a:	48 8d 45 01          	lea    0x1(%rbp),%rax
  40236e:	0f b6 54 24 07       	movzbl 0x7(%rsp),%edx
  402373:	88 55 00             	mov    %dl,0x0(%rbp)
  402376:	80 7c 24 07 0a       	cmpb   $0xa,0x7(%rsp)
  40237b:	75 0e                	jne    40238b <rio_readlineb+0x62>
  40237d:	eb 1a                	jmp    402399 <rio_readlineb+0x70>
  40237f:	85 c0                	test   %eax,%eax
  402381:	75 22                	jne    4023a5 <rio_readlineb+0x7c>
  402383:	48 83 fb 01          	cmp    $0x1,%rbx
  402387:	75 13                	jne    40239c <rio_readlineb+0x73>
  402389:	eb 23                	jmp    4023ae <rio_readlineb+0x85>
  40238b:	48 83 c3 01          	add    $0x1,%rbx
  40238f:	48 89 c5             	mov    %rax,%rbp
  402392:	4c 39 e3             	cmp    %r12,%rbx
  402395:	72 bc                	jb     402353 <rio_readlineb+0x2a>
  402397:	eb 03                	jmp    40239c <rio_readlineb+0x73>
  402399:	48 89 c5             	mov    %rax,%rbp
  40239c:	c6 45 00 00          	movb   $0x0,0x0(%rbp)
  4023a0:	48 89 d8             	mov    %rbx,%rax
  4023a3:	eb 0e                	jmp    4023b3 <rio_readlineb+0x8a>
  4023a5:	48 c7 c0 ff ff ff ff 	mov    $0xffffffffffffffff,%rax
  4023ac:	eb 05                	jmp    4023b3 <rio_readlineb+0x8a>
  4023ae:	b8 00 00 00 00       	mov    $0x0,%eax
  4023b3:	48 8b 4c 24 08       	mov    0x8(%rsp),%rcx
  4023b8:	64 48 33 0c 25 28 00 	xor    %fs:0x28,%rcx
  4023bf:	00 00 
  4023c1:	74 05                	je     4023c8 <rio_readlineb+0x9f>
  4023c3:	e8 28 e9 ff ff       	callq  400cf0 <__stack_chk_fail@plt>
  4023c8:	48 83 c4 18          	add    $0x18,%rsp
  4023cc:	5b                   	pop    %rbx
  4023cd:	5d                   	pop    %rbp
  4023ce:	41 5c                	pop    %r12
  4023d0:	41 5d                	pop    %r13
  4023d2:	c3                   	retq   

00000000004023d3 <urlencode>:
  4023d3:	41 54                	push   %r12
  4023d5:	55                   	push   %rbp
  4023d6:	53                   	push   %rbx
  4023d7:	48 83 ec 10          	sub    $0x10,%rsp
  4023db:	48 89 fb             	mov    %rdi,%rbx
  4023de:	48 89 f5             	mov    %rsi,%rbp
  4023e1:	64 48 8b 04 25 28 00 	mov    %fs:0x28,%rax
  4023e8:	00 00 
  4023ea:	48 89 44 24 08       	mov    %rax,0x8(%rsp)
  4023ef:	31 c0                	xor    %eax,%eax
  4023f1:	48 c7 c1 ff ff ff ff 	mov    $0xffffffffffffffff,%rcx
  4023f8:	f2 ae                	repnz scas %es:(%rdi),%al
  4023fa:	48 f7 d1             	not    %rcx
  4023fd:	8d 41 ff             	lea    -0x1(%rcx),%eax
  402400:	e9 aa 00 00 00       	jmpq   4024af <urlencode+0xdc>
  402405:	44 0f b6 03          	movzbl (%rbx),%r8d
  402409:	41 80 f8 2a          	cmp    $0x2a,%r8b
  40240d:	0f 94 c2             	sete   %dl
  402410:	41 80 f8 2d          	cmp    $0x2d,%r8b
  402414:	0f 94 c0             	sete   %al
  402417:	08 c2                	or     %al,%dl
  402419:	75 24                	jne    40243f <urlencode+0x6c>
  40241b:	41 80 f8 2e          	cmp    $0x2e,%r8b
  40241f:	74 1e                	je     40243f <urlencode+0x6c>
  402421:	41 80 f8 5f          	cmp    $0x5f,%r8b
  402425:	74 18                	je     40243f <urlencode+0x6c>
  402427:	41 8d 40 d0          	lea    -0x30(%r8),%eax
  40242b:	3c 09                	cmp    $0x9,%al
  40242d:	76 10                	jbe    40243f <urlencode+0x6c>
  40242f:	41 8d 40 bf          	lea    -0x41(%r8),%eax
  402433:	3c 19                	cmp    $0x19,%al
  402435:	76 08                	jbe    40243f <urlencode+0x6c>
  402437:	41 8d 40 9f          	lea    -0x61(%r8),%eax
  40243b:	3c 19                	cmp    $0x19,%al
  40243d:	77 0a                	ja     402449 <urlencode+0x76>
  40243f:	44 88 45 00          	mov    %r8b,0x0(%rbp)
  402443:	48 8d 6d 01          	lea    0x1(%rbp),%rbp
  402447:	eb 5f                	jmp    4024a8 <urlencode+0xd5>
  402449:	41 80 f8 20          	cmp    $0x20,%r8b
  40244d:	75 0a                	jne    402459 <urlencode+0x86>
  40244f:	c6 45 00 2b          	movb   $0x2b,0x0(%rbp)
  402453:	48 8d 6d 01          	lea    0x1(%rbp),%rbp
  402457:	eb 4f                	jmp    4024a8 <urlencode+0xd5>
  402459:	41 8d 40 e0          	lea    -0x20(%r8),%eax
  40245d:	3c 5f                	cmp    $0x5f,%al
  40245f:	0f 96 c2             	setbe  %dl
  402462:	41 80 f8 09          	cmp    $0x9,%r8b
  402466:	0f 94 c0             	sete   %al
  402469:	08 c2                	or     %al,%dl
  40246b:	74 50                	je     4024bd <urlencode+0xea>
  40246d:	45 0f b6 c0          	movzbl %r8b,%r8d
  402471:	b9 68 37 40 00       	mov    $0x403768,%ecx
  402476:	ba 08 00 00 00       	mov    $0x8,%edx
  40247b:	be 01 00 00 00       	mov    $0x1,%esi
  402480:	48 89 e7             	mov    %rsp,%rdi
  402483:	b8 00 00 00 00       	mov    $0x0,%eax
  402488:	e8 f3 e9 ff ff       	callq  400e80 <__sprintf_chk@plt>
  40248d:	0f b6 04 24          	movzbl (%rsp),%eax
  402491:	88 45 00             	mov    %al,0x0(%rbp)
  402494:	0f b6 44 24 01       	movzbl 0x1(%rsp),%eax
  402499:	88 45 01             	mov    %al,0x1(%rbp)
  40249c:	0f b6 44 24 02       	movzbl 0x2(%rsp),%eax
  4024a1:	88 45 02             	mov    %al,0x2(%rbp)
  4024a4:	48 8d 6d 03          	lea    0x3(%rbp),%rbp
  4024a8:	48 83 c3 01          	add    $0x1,%rbx
  4024ac:	44 89 e0             	mov    %r12d,%eax
  4024af:	44 8d 60 ff          	lea    -0x1(%rax),%r12d
  4024b3:	85 c0                	test   %eax,%eax
  4024b5:	0f 85 4a ff ff ff    	jne    402405 <urlencode+0x32>
  4024bb:	eb 05                	jmp    4024c2 <urlencode+0xef>
  4024bd:	b8 ff ff ff ff       	mov    $0xffffffff,%eax
  4024c2:	48 8b 74 24 08       	mov    0x8(%rsp),%rsi
  4024c7:	64 48 33 34 25 28 00 	xor    %fs:0x28,%rsi
  4024ce:	00 00 
  4024d0:	74 05                	je     4024d7 <urlencode+0x104>
  4024d2:	e8 19 e8 ff ff       	callq  400cf0 <__stack_chk_fail@plt>
  4024d7:	48 83 c4 10          	add    $0x10,%rsp
  4024db:	5b                   	pop    %rbx
  4024dc:	5d                   	pop    %rbp
  4024dd:	41 5c                	pop    %r12
  4024df:	c3                   	retq   

00000000004024e0 <submitr>:
  4024e0:	41 57                	push   %r15
  4024e2:	41 56                	push   %r14
  4024e4:	41 55                	push   %r13
  4024e6:	41 54                	push   %r12
  4024e8:	55                   	push   %rbp
  4024e9:	53                   	push   %rbx
  4024ea:	48 81 ec 58 a0 00 00 	sub    $0xa058,%rsp
  4024f1:	49 89 fc             	mov    %rdi,%r12
  4024f4:	89 74 24 04          	mov    %esi,0x4(%rsp)
  4024f8:	49 89 d7             	mov    %rdx,%r15
  4024fb:	49 89 ce             	mov    %rcx,%r14
  4024fe:	4c 89 44 24 08       	mov    %r8,0x8(%rsp)
  402503:	4d 89 cd             	mov    %r9,%r13
  402506:	48 8b 9c 24 90 a0 00 	mov    0xa090(%rsp),%rbx
  40250d:	00 
  40250e:	64 48 8b 04 25 28 00 	mov    %fs:0x28,%rax
  402515:	00 00 
  402517:	48 89 84 24 48 a0 00 	mov    %rax,0xa048(%rsp)
  40251e:	00 
  40251f:	31 c0                	xor    %eax,%eax
  402521:	c7 44 24 1c 00 00 00 	movl   $0x0,0x1c(%rsp)
  402528:	00 
  402529:	ba 00 00 00 00       	mov    $0x0,%edx
  40252e:	be 01 00 00 00       	mov    $0x1,%esi
  402533:	bf 02 00 00 00       	mov    $0x2,%edi
  402538:	e8 53 e9 ff ff       	callq  400e90 <socket@plt>
  40253d:	85 c0                	test   %eax,%eax
  40253f:	79 4e                	jns    40258f <submitr+0xaf>
  402541:	48 b8 45 72 72 6f 72 	movabs $0x43203a726f727245,%rax
  402548:	3a 20 43 
  40254b:	48 89 03             	mov    %rax,(%rbx)
  40254e:	48 b8 6c 69 65 6e 74 	movabs $0x6e7520746e65696c,%rax
  402555:	20 75 6e 
  402558:	48 89 43 08          	mov    %rax,0x8(%rbx)
  40255c:	48 b8 61 62 6c 65 20 	movabs $0x206f7420656c6261,%rax
  402563:	74 6f 20 
  402566:	48 89 43 10          	mov    %rax,0x10(%rbx)
  40256a:	48 b8 63 72 65 61 74 	movabs $0x7320657461657263,%rax
  402571:	65 20 73 
  402574:	48 89 43 18          	mov    %rax,0x18(%rbx)
  402578:	c7 43 20 6f 63 6b 65 	movl   $0x656b636f,0x20(%rbx)
  40257f:	66 c7 43 24 74 00    	movw   $0x74,0x24(%rbx)
  402585:	b8 ff ff ff ff       	mov    $0xffffffff,%eax
  40258a:	e9 97 06 00 00       	jmpq   402c26 <submitr+0x746>
  40258f:	89 c5                	mov    %eax,%ebp
  402591:	4c 89 e7             	mov    %r12,%rdi
  402594:	e8 d7 e7 ff ff       	callq  400d70 <gethostbyname@plt>
  402599:	48 85 c0             	test   %rax,%rax
  40259c:	75 67                	jne    402605 <submitr+0x125>
  40259e:	48 b8 45 72 72 6f 72 	movabs $0x44203a726f727245,%rax
  4025a5:	3a 20 44 
  4025a8:	48 89 03             	mov    %rax,(%rbx)
  4025ab:	48 b8 4e 53 20 69 73 	movabs $0x6e7520736920534e,%rax
  4025b2:	20 75 6e 
  4025b5:	48 89 43 08          	mov    %rax,0x8(%rbx)
  4025b9:	48 b8 61 62 6c 65 20 	movabs $0x206f7420656c6261,%rax
  4025c0:	74 6f 20 
  4025c3:	48 89 43 10          	mov    %rax,0x10(%rbx)
  4025c7:	48 b8 72 65 73 6f 6c 	movabs $0x2065766c6f736572,%rax
  4025ce:	76 65 20 
  4025d1:	48 89 43 18          	mov    %rax,0x18(%rbx)
  4025d5:	48 b8 73 65 72 76 65 	movabs $0x6120726576726573,%rax
  4025dc:	72 20 61 
  4025df:	48 89 43 20          	mov    %rax,0x20(%rbx)
  4025e3:	c7 43 28 64 64 72 65 	movl   $0x65726464,0x28(%rbx)
  4025ea:	66 c7 43 2c 73 73    	movw   $0x7373,0x2c(%rbx)
  4025f0:	c6 43 2e 00          	movb   $0x0,0x2e(%rbx)
  4025f4:	89 ef                	mov    %ebp,%edi
  4025f6:	e8 35 e7 ff ff       	callq  400d30 <close@plt>
  4025fb:	b8 ff ff ff ff       	mov    $0xffffffff,%eax
  402600:	e9 21 06 00 00       	jmpq   402c26 <submitr+0x746>
  402605:	48 c7 44 24 20 00 00 	movq   $0x0,0x20(%rsp)
  40260c:	00 00 
  40260e:	48 c7 44 24 28 00 00 	movq   $0x0,0x28(%rsp)
  402615:	00 00 
  402617:	66 c7 44 24 20 02 00 	movw   $0x2,0x20(%rsp)
  40261e:	48 63 50 14          	movslq 0x14(%rax),%rdx
  402622:	48 8b 40 18          	mov    0x18(%rax),%rax
  402626:	48 8b 30             	mov    (%rax),%rsi
  402629:	48 8d 7c 24 24       	lea    0x24(%rsp),%rdi
  40262e:	b9 0c 00 00 00       	mov    $0xc,%ecx
  402633:	e8 48 e7 ff ff       	callq  400d80 <__memmove_chk@plt>
  402638:	0f b7 44 24 04       	movzwl 0x4(%rsp),%eax
  40263d:	66 c1 c8 08          	ror    $0x8,%ax
  402641:	66 89 44 24 22       	mov    %ax,0x22(%rsp)
  402646:	ba 10 00 00 00       	mov    $0x10,%edx
  40264b:	48 8d 74 24 20       	lea    0x20(%rsp),%rsi
  402650:	89 ef                	mov    %ebp,%edi
  402652:	e8 09 e8 ff ff       	callq  400e60 <connect@plt>
  402657:	85 c0                	test   %eax,%eax
  402659:	79 59                	jns    4026b4 <submitr+0x1d4>
  40265b:	48 b8 45 72 72 6f 72 	movabs $0x55203a726f727245,%rax
  402662:	3a 20 55 
  402665:	48 89 03             	mov    %rax,(%rbx)
  402668:	48 b8 6e 61 62 6c 65 	movabs $0x6f7420656c62616e,%rax
  40266f:	20 74 6f 
  402672:	48 89 43 08          	mov    %rax,0x8(%rbx)
  402676:	48 b8 20 63 6f 6e 6e 	movabs $0x7463656e6e6f6320,%rax
  40267d:	65 63 74 
  402680:	48 89 43 10          	mov    %rax,0x10(%rbx)
  402684:	48 b8 20 74 6f 20 74 	movabs $0x20656874206f7420,%rax
  40268b:	68 65 20 
  40268e:	48 89 43 18          	mov    %rax,0x18(%rbx)
  402692:	c7 43 20 73 65 72 76 	movl   $0x76726573,0x20(%rbx)
  402699:	66 c7 43 24 65 72    	movw   $0x7265,0x24(%rbx)
  40269f:	c6 43 26 00          	movb   $0x0,0x26(%rbx)
  4026a3:	89 ef                	mov    %ebp,%edi
  4026a5:	e8 86 e6 ff ff       	callq  400d30 <close@plt>
  4026aa:	b8 ff ff ff ff       	mov    $0xffffffff,%eax
  4026af:	e9 72 05 00 00       	jmpq   402c26 <submitr+0x746>
  4026b4:	48 c7 c6 ff ff ff ff 	mov    $0xffffffffffffffff,%rsi
  4026bb:	b8 00 00 00 00       	mov    $0x0,%eax
  4026c0:	48 89 f1             	mov    %rsi,%rcx
  4026c3:	4c 89 ef             	mov    %r13,%rdi
  4026c6:	f2 ae                	repnz scas %es:(%rdi),%al
  4026c8:	48 f7 d1             	not    %rcx
  4026cb:	48 89 ca             	mov    %rcx,%rdx
  4026ce:	48 89 f1             	mov    %rsi,%rcx
  4026d1:	4c 89 ff             	mov    %r15,%rdi
  4026d4:	f2 ae                	repnz scas %es:(%rdi),%al
  4026d6:	48 f7 d1             	not    %rcx
  4026d9:	49 89 c8             	mov    %rcx,%r8
  4026dc:	48 89 f1             	mov    %rsi,%rcx
  4026df:	4c 89 f7             	mov    %r14,%rdi
  4026e2:	f2 ae                	repnz scas %es:(%rdi),%al
  4026e4:	48 f7 d1             	not    %rcx
  4026e7:	4d 8d 44 08 fe       	lea    -0x2(%r8,%rcx,1),%r8
  4026ec:	48 89 f1             	mov    %rsi,%rcx
  4026ef:	48 8b 7c 24 08       	mov    0x8(%rsp),%rdi
  4026f4:	f2 ae                	repnz scas %es:(%rdi),%al
  4026f6:	48 89 c8             	mov    %rcx,%rax
  4026f9:	48 f7 d0             	not    %rax
  4026fc:	49 8d 4c 00 ff       	lea    -0x1(%r8,%rax,1),%rcx
  402701:	48 8d 44 52 fd       	lea    -0x3(%rdx,%rdx,2),%rax
  402706:	48 8d 84 01 80 00 00 	lea    0x80(%rcx,%rax,1),%rax
  40270d:	00 
  40270e:	48 3d 00 20 00 00    	cmp    $0x2000,%rax
  402714:	76 72                	jbe    402788 <submitr+0x2a8>
  402716:	48 b8 45 72 72 6f 72 	movabs $0x52203a726f727245,%rax
  40271d:	3a 20 52 
  402720:	48 89 03             	mov    %rax,(%rbx)
  402723:	48 b8 65 73 75 6c 74 	movabs $0x747320746c757365,%rax
  40272a:	20 73 74 
  40272d:	48 89 43 08          	mov    %rax,0x8(%rbx)
  402731:	48 b8 72 69 6e 67 20 	movabs $0x6f6f7420676e6972,%rax
  402738:	74 6f 6f 
  40273b:	48 89 43 10          	mov    %rax,0x10(%rbx)
  40273f:	48 b8 20 6c 61 72 67 	movabs $0x202e656772616c20,%rax
  402746:	65 2e 20 
  402749:	48 89 43 18          	mov    %rax,0x18(%rbx)
  40274d:	48 b8 49 6e 63 72 65 	movabs $0x6573616572636e49,%rax
  402754:	61 73 65 
  402757:	48 89 43 20          	mov    %rax,0x20(%rbx)
  40275b:	48 b8 20 53 55 42 4d 	movabs $0x5254494d42555320,%rax
  402762:	49 54 52 
  402765:	48 89 43 28          	mov    %rax,0x28(%rbx)
  402769:	48 b8 5f 4d 41 58 42 	movabs $0x46554258414d5f,%rax
  402770:	55 46 00 
  402773:	48 89 43 30          	mov    %rax,0x30(%rbx)
  402777:	89 ef                	mov    %ebp,%edi
  402779:	e8 b2 e5 ff ff       	callq  400d30 <close@plt>
  40277e:	b8 ff ff ff ff       	mov    $0xffffffff,%eax
  402783:	e9 9e 04 00 00       	jmpq   402c26 <submitr+0x746>
  402788:	48 8d b4 24 40 40 00 	lea    0x4040(%rsp),%rsi
  40278f:	00 
  402790:	b9 00 04 00 00       	mov    $0x400,%ecx
  402795:	b8 00 00 00 00       	mov    $0x0,%eax
  40279a:	48 89 f7             	mov    %rsi,%rdi
  40279d:	f3 48 ab             	rep stos %rax,%es:(%rdi)
  4027a0:	4c 89 ef             	mov    %r13,%rdi
  4027a3:	e8 2b fc ff ff       	callq  4023d3 <urlencode>
  4027a8:	85 c0                	test   %eax,%eax
  4027aa:	0f 89 8a 00 00 00    	jns    40283a <submitr+0x35a>
  4027b0:	48 b8 45 72 72 6f 72 	movabs $0x52203a726f727245,%rax
  4027b7:	3a 20 52 
  4027ba:	48 89 03             	mov    %rax,(%rbx)
  4027bd:	48 b8 65 73 75 6c 74 	movabs $0x747320746c757365,%rax
  4027c4:	20 73 74 
  4027c7:	48 89 43 08          	mov    %rax,0x8(%rbx)
  4027cb:	48 b8 72 69 6e 67 20 	movabs $0x6e6f6320676e6972,%rax
  4027d2:	63 6f 6e 
  4027d5:	48 89 43 10          	mov    %rax,0x10(%rbx)
  4027d9:	48 b8 74 61 69 6e 73 	movabs $0x6e6120736e696174,%rax
  4027e0:	20 61 6e 
  4027e3:	48 89 43 18          	mov    %rax,0x18(%rbx)
  4027e7:	48 b8 20 69 6c 6c 65 	movabs $0x6c6167656c6c6920,%rax
  4027ee:	67 61 6c 
  4027f1:	48 89 43 20          	mov    %rax,0x20(%rbx)
  4027f5:	48 b8 20 6f 72 20 75 	movabs $0x72706e7520726f20,%rax
  4027fc:	6e 70 72 
  4027ff:	48 89 43 28          	mov    %rax,0x28(%rbx)
  402803:	48 b8 69 6e 74 61 62 	movabs $0x20656c6261746e69,%rax
  40280a:	6c 65 20 
  40280d:	48 89 43 30          	mov    %rax,0x30(%rbx)
  402811:	48 b8 63 68 61 72 61 	movabs $0x6574636172616863,%rax
  402818:	63 74 65 
  40281b:	48 89 43 38          	mov    %rax,0x38(%rbx)
  40281f:	66 c7 43 40 72 2e    	movw   $0x2e72,0x40(%rbx)
  402825:	c6 43 42 00          	movb   $0x0,0x42(%rbx)
  402829:	89 ef                	mov    %ebp,%edi
  40282b:	e8 00 e5 ff ff       	callq  400d30 <close@plt>
  402830:	b8 ff ff ff ff       	mov    $0xffffffff,%eax
  402835:	e9 ec 03 00 00       	jmpq   402c26 <submitr+0x746>
  40283a:	4c 8d ac 24 40 20 00 	lea    0x2040(%rsp),%r13
  402841:	00 
  402842:	41 54                	push   %r12
  402844:	48 8d 84 24 48 40 00 	lea    0x4048(%rsp),%rax
  40284b:	00 
  40284c:	50                   	push   %rax
  40284d:	4d 89 f9             	mov    %r15,%r9
  402850:	4d 89 f0             	mov    %r14,%r8
  402853:	b9 f8 36 40 00       	mov    $0x4036f8,%ecx
  402858:	ba 00 20 00 00       	mov    $0x2000,%edx
  40285d:	be 01 00 00 00       	mov    $0x1,%esi
  402862:	4c 89 ef             	mov    %r13,%rdi
  402865:	b8 00 00 00 00       	mov    $0x0,%eax
  40286a:	e8 11 e6 ff ff       	callq  400e80 <__sprintf_chk@plt>
  40286f:	b8 00 00 00 00       	mov    $0x0,%eax
  402874:	48 c7 c1 ff ff ff ff 	mov    $0xffffffffffffffff,%rcx
  40287b:	4c 89 ef             	mov    %r13,%rdi
  40287e:	f2 ae                	repnz scas %es:(%rdi),%al
  402880:	48 f7 d1             	not    %rcx
  402883:	48 8d 51 ff          	lea    -0x1(%rcx),%rdx
  402887:	4c 89 ee             	mov    %r13,%rsi
  40288a:	89 ef                	mov    %ebp,%edi
  40288c:	e8 b1 f9 ff ff       	callq  402242 <rio_writen>
  402891:	48 83 c4 10          	add    $0x10,%rsp
  402895:	48 85 c0             	test   %rax,%rax
  402898:	79 6e                	jns    402908 <submitr+0x428>
  40289a:	48 b8 45 72 72 6f 72 	movabs $0x43203a726f727245,%rax
  4028a1:	3a 20 43 
  4028a4:	48 89 03             	mov    %rax,(%rbx)
  4028a7:	48 b8 6c 69 65 6e 74 	movabs $0x6e7520746e65696c,%rax
  4028ae:	20 75 6e 
  4028b1:	48 89 43 08          	mov    %rax,0x8(%rbx)
  4028b5:	48 b8 61 62 6c 65 20 	movabs $0x206f7420656c6261,%rax
  4028bc:	74 6f 20 
  4028bf:	48 89 43 10          	mov    %rax,0x10(%rbx)
  4028c3:	48 b8 77 72 69 74 65 	movabs $0x6f74206574697277,%rax
  4028ca:	20 74 6f 
  4028cd:	48 89 43 18          	mov    %rax,0x18(%rbx)
  4028d1:	48 b8 20 74 68 65 20 	movabs $0x7365722065687420,%rax
  4028d8:	72 65 73 
  4028db:	48 89 43 20          	mov    %rax,0x20(%rbx)
  4028df:	48 b8 75 6c 74 20 73 	movabs $0x7672657320746c75,%rax
  4028e6:	65 72 76 
  4028e9:	48 89 43 28          	mov    %rax,0x28(%rbx)
  4028ed:	66 c7 43 30 65 72    	movw   $0x7265,0x30(%rbx)
  4028f3:	c6 43 32 00          	movb   $0x0,0x32(%rbx)
  4028f7:	89 ef                	mov    %ebp,%edi
  4028f9:	e8 32 e4 ff ff       	callq  400d30 <close@plt>
  4028fe:	b8 ff ff ff ff       	mov    $0xffffffff,%eax
  402903:	e9 1e 03 00 00       	jmpq   402c26 <submitr+0x746>
  402908:	89 ee                	mov    %ebp,%esi
  40290a:	48 8d 7c 24 30       	lea    0x30(%rsp),%rdi
  40290f:	e8 ee f8 ff ff       	callq  402202 <rio_readinitb>
  402914:	ba 00 20 00 00       	mov    $0x2000,%edx
  402919:	48 8d b4 24 40 20 00 	lea    0x2040(%rsp),%rsi
  402920:	00 
  402921:	48 8d 7c 24 30       	lea    0x30(%rsp),%rdi
  402926:	e8 fe f9 ff ff       	callq  402329 <rio_readlineb>
  40292b:	48 85 c0             	test   %rax,%rax
  40292e:	7f 7d                	jg     4029ad <submitr+0x4cd>
  402930:	48 b8 45 72 72 6f 72 	movabs $0x43203a726f727245,%rax
  402937:	3a 20 43 
  40293a:	48 89 03             	mov    %rax,(%rbx)
  40293d:	48 b8 6c 69 65 6e 74 	movabs $0x6e7520746e65696c,%rax
  402944:	20 75 6e 
  402947:	48 89 43 08          	mov    %rax,0x8(%rbx)
  40294b:	48 b8 61 62 6c 65 20 	movabs $0x206f7420656c6261,%rax
  402952:	74 6f 20 
  402955:	48 89 43 10          	mov    %rax,0x10(%rbx)
  402959:	48 b8 72 65 61 64 20 	movabs $0x7269662064616572,%rax
  402960:	66 69 72 
  402963:	48 89 43 18          	mov    %rax,0x18(%rbx)
  402967:	48 b8 73 74 20 68 65 	movabs $0x6564616568207473,%rax
  40296e:	61 64 65 
  402971:	48 89 43 20          	mov    %rax,0x20(%rbx)
  402975:	48 b8 72 20 66 72 6f 	movabs $0x72206d6f72662072,%rax
  40297c:	6d 20 72 
  40297f:	48 89 43 28          	mov    %rax,0x28(%rbx)
  402983:	48 b8 65 73 75 6c 74 	movabs $0x657320746c757365,%rax
  40298a:	20 73 65 
  40298d:	48 89 43 30          	mov    %rax,0x30(%rbx)
  402991:	c7 43 38 72 76 65 72 	movl   $0x72657672,0x38(%rbx)
  402998:	c6 43 3c 00          	movb   $0x0,0x3c(%rbx)
  40299c:	89 ef                	mov    %ebp,%edi
  40299e:	e8 8d e3 ff ff       	callq  400d30 <close@plt>
  4029a3:	b8 ff ff ff ff       	mov    $0xffffffff,%eax
  4029a8:	e9 79 02 00 00       	jmpq   402c26 <submitr+0x746>
  4029ad:	4c 8d 84 24 40 80 00 	lea    0x8040(%rsp),%r8
  4029b4:	00 
  4029b5:	48 8d 4c 24 1c       	lea    0x1c(%rsp),%rcx
  4029ba:	48 8d 94 24 40 60 00 	lea    0x6040(%rsp),%rdx
  4029c1:	00 
  4029c2:	be 6f 37 40 00       	mov    $0x40376f,%esi
  4029c7:	48 8d bc 24 40 20 00 	lea    0x2040(%rsp),%rdi
  4029ce:	00 
  4029cf:	b8 00 00 00 00       	mov    $0x0,%eax
  4029d4:	e8 07 e4 ff ff       	callq  400de0 <__isoc99_sscanf@plt>
  4029d9:	e9 95 00 00 00       	jmpq   402a73 <submitr+0x593>
  4029de:	ba 00 20 00 00       	mov    $0x2000,%edx
  4029e3:	48 8d b4 24 40 20 00 	lea    0x2040(%rsp),%rsi
  4029ea:	00 
  4029eb:	48 8d 7c 24 30       	lea    0x30(%rsp),%rdi
  4029f0:	e8 34 f9 ff ff       	callq  402329 <rio_readlineb>
  4029f5:	48 85 c0             	test   %rax,%rax
  4029f8:	7f 79                	jg     402a73 <submitr+0x593>
  4029fa:	48 b8 45 72 72 6f 72 	movabs $0x43203a726f727245,%rax
  402a01:	3a 20 43 
  402a04:	48 89 03             	mov    %rax,(%rbx)
  402a07:	48 b8 6c 69 65 6e 74 	movabs $0x6e7520746e65696c,%rax
  402a0e:	20 75 6e 
  402a11:	48 89 43 08          	mov    %rax,0x8(%rbx)
  402a15:	48 b8 61 62 6c 65 20 	movabs $0x206f7420656c6261,%rax
  402a1c:	74 6f 20 
  402a1f:	48 89 43 10          	mov    %rax,0x10(%rbx)
  402a23:	48 b8 72 65 61 64 20 	movabs $0x6165682064616572,%rax
  402a2a:	68 65 61 
  402a2d:	48 89 43 18          	mov    %rax,0x18(%rbx)
  402a31:	48 b8 64 65 72 73 20 	movabs $0x6f72662073726564,%rax
  402a38:	66 72 6f 
  402a3b:	48 89 43 20          	mov    %rax,0x20(%rbx)
  402a3f:	48 b8 6d 20 74 68 65 	movabs $0x657220656874206d,%rax
  402a46:	20 72 65 
  402a49:	48 89 43 28          	mov    %rax,0x28(%rbx)
  402a4d:	48 b8 73 75 6c 74 20 	movabs $0x72657320746c7573,%rax
  402a54:	73 65 72 
  402a57:	48 89 43 30          	mov    %rax,0x30(%rbx)
  402a5b:	c7 43 38 76 65 72 00 	movl   $0x726576,0x38(%rbx)
  402a62:	89 ef                	mov    %ebp,%edi
  402a64:	e8 c7 e2 ff ff       	callq  400d30 <close@plt>
  402a69:	b8 ff ff ff ff       	mov    $0xffffffff,%eax
  402a6e:	e9 b3 01 00 00       	jmpq   402c26 <submitr+0x746>
  402a73:	0f b6 94 24 40 20 00 	movzbl 0x2040(%rsp),%edx
  402a7a:	00 
  402a7b:	b8 0d 00 00 00       	mov    $0xd,%eax
  402a80:	29 d0                	sub    %edx,%eax
  402a82:	75 1b                	jne    402a9f <submitr+0x5bf>
  402a84:	0f b6 94 24 41 20 00 	movzbl 0x2041(%rsp),%edx
  402a8b:	00 
  402a8c:	b8 0a 00 00 00       	mov    $0xa,%eax
  402a91:	29 d0                	sub    %edx,%eax
  402a93:	75 0a                	jne    402a9f <submitr+0x5bf>
  402a95:	0f b6 84 24 42 20 00 	movzbl 0x2042(%rsp),%eax
  402a9c:	00 
  402a9d:	f7 d8                	neg    %eax
  402a9f:	85 c0                	test   %eax,%eax
  402aa1:	0f 85 37 ff ff ff    	jne    4029de <submitr+0x4fe>
  402aa7:	ba 00 20 00 00       	mov    $0x2000,%edx
  402aac:	48 8d b4 24 40 20 00 	lea    0x2040(%rsp),%rsi
  402ab3:	00 
  402ab4:	48 8d 7c 24 30       	lea    0x30(%rsp),%rdi
  402ab9:	e8 6b f8 ff ff       	callq  402329 <rio_readlineb>
  402abe:	48 85 c0             	test   %rax,%rax
  402ac1:	0f 8f 83 00 00 00    	jg     402b4a <submitr+0x66a>
  402ac7:	48 b8 45 72 72 6f 72 	movabs $0x43203a726f727245,%rax
  402ace:	3a 20 43 
  402ad1:	48 89 03             	mov    %rax,(%rbx)
  402ad4:	48 b8 6c 69 65 6e 74 	movabs $0x6e7520746e65696c,%rax
  402adb:	20 75 6e 
  402ade:	48 89 43 08          	mov    %rax,0x8(%rbx)
  402ae2:	48 b8 61 62 6c 65 20 	movabs $0x206f7420656c6261,%rax
  402ae9:	74 6f 20 
  402aec:	48 89 43 10          	mov    %rax,0x10(%rbx)
  402af0:	48 b8 72 65 61 64 20 	movabs $0x6174732064616572,%rax
  402af7:	73 74 61 
  402afa:	48 89 43 18          	mov    %rax,0x18(%rbx)
  402afe:	48 b8 74 75 73 20 6d 	movabs $0x7373656d20737574,%rax
  402b05:	65 73 73 
  402b08:	48 89 43 20          	mov    %rax,0x20(%rbx)
  402b0c:	48 b8 61 67 65 20 66 	movabs $0x6d6f726620656761,%rax
  402b13:	72 6f 6d 
  402b16:	48 89 43 28          	mov    %rax,0x28(%rbx)
  402b1a:	48 b8 20 72 65 73 75 	movabs $0x20746c7573657220,%rax
  402b21:	6c 74 20 
  402b24:	48 89 43 30          	mov    %rax,0x30(%rbx)
  402b28:	c7 43 38 73 65 72 76 	movl   $0x76726573,0x38(%rbx)
  402b2f:	66 c7 43 3c 65 72    	movw   $0x7265,0x3c(%rbx)
  402b35:	c6 43 3e 00          	movb   $0x0,0x3e(%rbx)
  402b39:	89 ef                	mov    %ebp,%edi
  402b3b:	e8 f0 e1 ff ff       	callq  400d30 <close@plt>
  402b40:	b8 ff ff ff ff       	mov    $0xffffffff,%eax
  402b45:	e9 dc 00 00 00       	jmpq   402c26 <submitr+0x746>
  402b4a:	44 8b 44 24 1c       	mov    0x1c(%rsp),%r8d
  402b4f:	41 81 f8 c8 00 00 00 	cmp    $0xc8,%r8d
  402b56:	74 37                	je     402b8f <submitr+0x6af>
  402b58:	4c 8d 8c 24 40 80 00 	lea    0x8040(%rsp),%r9
  402b5f:	00 
  402b60:	b9 38 37 40 00       	mov    $0x403738,%ecx
  402b65:	48 c7 c2 ff ff ff ff 	mov    $0xffffffffffffffff,%rdx
  402b6c:	be 01 00 00 00       	mov    $0x1,%esi
  402b71:	48 89 df             	mov    %rbx,%rdi
  402b74:	b8 00 00 00 00       	mov    $0x0,%eax
  402b79:	e8 02 e3 ff ff       	callq  400e80 <__sprintf_chk@plt>
  402b7e:	89 ef                	mov    %ebp,%edi
  402b80:	e8 ab e1 ff ff       	callq  400d30 <close@plt>
  402b85:	b8 ff ff ff ff       	mov    $0xffffffff,%eax
  402b8a:	e9 97 00 00 00       	jmpq   402c26 <submitr+0x746>
  402b8f:	48 8d b4 24 40 20 00 	lea    0x2040(%rsp),%rsi
  402b96:	00 
  402b97:	48 89 df             	mov    %rbx,%rdi
  402b9a:	e8 21 e1 ff ff       	callq  400cc0 <strcpy@plt>
  402b9f:	89 ef                	mov    %ebp,%edi
  402ba1:	e8 8a e1 ff ff       	callq  400d30 <close@plt>
  402ba6:	0f b6 03             	movzbl (%rbx),%eax
  402ba9:	ba 4f 00 00 00       	mov    $0x4f,%edx
  402bae:	29 c2                	sub    %eax,%edx
  402bb0:	75 22                	jne    402bd4 <submitr+0x6f4>
  402bb2:	0f b6 4b 01          	movzbl 0x1(%rbx),%ecx
  402bb6:	b8 4b 00 00 00       	mov    $0x4b,%eax
  402bbb:	29 c8                	sub    %ecx,%eax
  402bbd:	75 17                	jne    402bd6 <submitr+0x6f6>
  402bbf:	0f b6 4b 02          	movzbl 0x2(%rbx),%ecx
  402bc3:	b8 0a 00 00 00       	mov    $0xa,%eax
  402bc8:	29 c8                	sub    %ecx,%eax
  402bca:	75 0a                	jne    402bd6 <submitr+0x6f6>
  402bcc:	0f b6 43 03          	movzbl 0x3(%rbx),%eax
  402bd0:	f7 d8                	neg    %eax
  402bd2:	eb 02                	jmp    402bd6 <submitr+0x6f6>
  402bd4:	89 d0                	mov    %edx,%eax
  402bd6:	85 c0                	test   %eax,%eax
  402bd8:	74 40                	je     402c1a <submitr+0x73a>
  402bda:	bf 80 37 40 00       	mov    $0x403780,%edi
  402bdf:	b9 05 00 00 00       	mov    $0x5,%ecx
  402be4:	48 89 de             	mov    %rbx,%rsi
  402be7:	f3 a6                	repz cmpsb %es:(%rdi),%ds:(%rsi)
  402be9:	0f 97 c0             	seta   %al
  402bec:	0f 92 c1             	setb   %cl
  402bef:	29 c8                	sub    %ecx,%eax
  402bf1:	0f be c0             	movsbl %al,%eax
  402bf4:	85 c0                	test   %eax,%eax
  402bf6:	74 2e                	je     402c26 <submitr+0x746>
  402bf8:	85 d2                	test   %edx,%edx
  402bfa:	75 13                	jne    402c0f <submitr+0x72f>
  402bfc:	0f b6 43 01          	movzbl 0x1(%rbx),%eax
  402c00:	ba 4b 00 00 00       	mov    $0x4b,%edx
  402c05:	29 c2                	sub    %eax,%edx
  402c07:	75 06                	jne    402c0f <submitr+0x72f>
  402c09:	0f b6 53 02          	movzbl 0x2(%rbx),%edx
  402c0d:	f7 da                	neg    %edx
  402c0f:	85 d2                	test   %edx,%edx
  402c11:	75 0e                	jne    402c21 <submitr+0x741>
  402c13:	b8 00 00 00 00       	mov    $0x0,%eax
  402c18:	eb 0c                	jmp    402c26 <submitr+0x746>
  402c1a:	b8 00 00 00 00       	mov    $0x0,%eax
  402c1f:	eb 05                	jmp    402c26 <submitr+0x746>
  402c21:	b8 ff ff ff ff       	mov    $0xffffffff,%eax
  402c26:	48 8b 9c 24 48 a0 00 	mov    0xa048(%rsp),%rbx
  402c2d:	00 
  402c2e:	64 48 33 1c 25 28 00 	xor    %fs:0x28,%rbx
  402c35:	00 00 
  402c37:	74 05                	je     402c3e <submitr+0x75e>
  402c39:	e8 b2 e0 ff ff       	callq  400cf0 <__stack_chk_fail@plt>
  402c3e:	48 81 c4 58 a0 00 00 	add    $0xa058,%rsp
  402c45:	5b                   	pop    %rbx
  402c46:	5d                   	pop    %rbp
  402c47:	41 5c                	pop    %r12
  402c49:	41 5d                	pop    %r13
  402c4b:	41 5e                	pop    %r14
  402c4d:	41 5f                	pop    %r15
  402c4f:	c3                   	retq   

0000000000402c50 <init_timeout>:
  402c50:	85 ff                	test   %edi,%edi
  402c52:	74 23                	je     402c77 <init_timeout+0x27>
  402c54:	53                   	push   %rbx
  402c55:	89 fb                	mov    %edi,%ebx
  402c57:	85 ff                	test   %edi,%edi
  402c59:	79 05                	jns    402c60 <init_timeout+0x10>
  402c5b:	bb 00 00 00 00       	mov    $0x0,%ebx
  402c60:	be 14 22 40 00       	mov    $0x402214,%esi
  402c65:	bf 0e 00 00 00       	mov    $0xe,%edi
  402c6a:	e8 f1 e0 ff ff       	callq  400d60 <signal@plt>
  402c6f:	89 df                	mov    %ebx,%edi
  402c71:	e8 aa e0 ff ff       	callq  400d20 <alarm@plt>
  402c76:	5b                   	pop    %rbx
  402c77:	f3 c3                	repz retq 

0000000000402c79 <init_driver>:
  402c79:	55                   	push   %rbp
  402c7a:	53                   	push   %rbx
  402c7b:	48 83 ec 28          	sub    $0x28,%rsp
  402c7f:	48 89 fd             	mov    %rdi,%rbp
  402c82:	64 48 8b 04 25 28 00 	mov    %fs:0x28,%rax
  402c89:	00 00 
  402c8b:	48 89 44 24 18       	mov    %rax,0x18(%rsp)
  402c90:	31 c0                	xor    %eax,%eax
  402c92:	be 01 00 00 00       	mov    $0x1,%esi
  402c97:	bf 0d 00 00 00       	mov    $0xd,%edi
  402c9c:	e8 bf e0 ff ff       	callq  400d60 <signal@plt>
  402ca1:	be 01 00 00 00       	mov    $0x1,%esi
  402ca6:	bf 1d 00 00 00       	mov    $0x1d,%edi
  402cab:	e8 b0 e0 ff ff       	callq  400d60 <signal@plt>
  402cb0:	be 01 00 00 00       	mov    $0x1,%esi
  402cb5:	bf 1d 00 00 00       	mov    $0x1d,%edi
  402cba:	e8 a1 e0 ff ff       	callq  400d60 <signal@plt>
  402cbf:	ba 00 00 00 00       	mov    $0x0,%edx
  402cc4:	be 01 00 00 00       	mov    $0x1,%esi
  402cc9:	bf 02 00 00 00       	mov    $0x2,%edi
  402cce:	e8 bd e1 ff ff       	callq  400e90 <socket@plt>
  402cd3:	85 c0                	test   %eax,%eax
  402cd5:	79 4f                	jns    402d26 <init_driver+0xad>
  402cd7:	48 b8 45 72 72 6f 72 	movabs $0x43203a726f727245,%rax
  402cde:	3a 20 43 
  402ce1:	48 89 45 00          	mov    %rax,0x0(%rbp)
  402ce5:	48 b8 6c 69 65 6e 74 	movabs $0x6e7520746e65696c,%rax
  402cec:	20 75 6e 
  402cef:	48 89 45 08          	mov    %rax,0x8(%rbp)
  402cf3:	48 b8 61 62 6c 65 20 	movabs $0x206f7420656c6261,%rax
  402cfa:	74 6f 20 
  402cfd:	48 89 45 10          	mov    %rax,0x10(%rbp)
  402d01:	48 b8 63 72 65 61 74 	movabs $0x7320657461657263,%rax
  402d08:	65 20 73 
  402d0b:	48 89 45 18          	mov    %rax,0x18(%rbp)
  402d0f:	c7 45 20 6f 63 6b 65 	movl   $0x656b636f,0x20(%rbp)
  402d16:	66 c7 45 24 74 00    	movw   $0x74,0x24(%rbp)
  402d1c:	b8 ff ff ff ff       	mov    $0xffffffff,%eax
  402d21:	e9 2a 01 00 00       	jmpq   402e50 <init_driver+0x1d7>
  402d26:	89 c3                	mov    %eax,%ebx
  402d28:	bf 85 37 40 00       	mov    $0x403785,%edi
  402d2d:	e8 3e e0 ff ff       	callq  400d70 <gethostbyname@plt>
  402d32:	48 85 c0             	test   %rax,%rax
  402d35:	75 68                	jne    402d9f <init_driver+0x126>
  402d37:	48 b8 45 72 72 6f 72 	movabs $0x44203a726f727245,%rax
  402d3e:	3a 20 44 
  402d41:	48 89 45 00          	mov    %rax,0x0(%rbp)
  402d45:	48 b8 4e 53 20 69 73 	movabs $0x6e7520736920534e,%rax
  402d4c:	20 75 6e 
  402d4f:	48 89 45 08          	mov    %rax,0x8(%rbp)
  402d53:	48 b8 61 62 6c 65 20 	movabs $0x206f7420656c6261,%rax
  402d5a:	74 6f 20 
  402d5d:	48 89 45 10          	mov    %rax,0x10(%rbp)
  402d61:	48 b8 72 65 73 6f 6c 	movabs $0x2065766c6f736572,%rax
  402d68:	76 65 20 
  402d6b:	48 89 45 18          	mov    %rax,0x18(%rbp)
  402d6f:	48 b8 73 65 72 76 65 	movabs $0x6120726576726573,%rax
  402d76:	72 20 61 
  402d79:	48 89 45 20          	mov    %rax,0x20(%rbp)
  402d7d:	c7 45 28 64 64 72 65 	movl   $0x65726464,0x28(%rbp)
  402d84:	66 c7 45 2c 73 73    	movw   $0x7373,0x2c(%rbp)
  402d8a:	c6 45 2e 00          	movb   $0x0,0x2e(%rbp)
  402d8e:	89 df                	mov    %ebx,%edi
  402d90:	e8 9b df ff ff       	callq  400d30 <close@plt>
  402d95:	b8 ff ff ff ff       	mov    $0xffffffff,%eax
  402d9a:	e9 b1 00 00 00       	jmpq   402e50 <init_driver+0x1d7>
  402d9f:	48 c7 04 24 00 00 00 	movq   $0x0,(%rsp)
  402da6:	00 
  402da7:	48 c7 44 24 08 00 00 	movq   $0x0,0x8(%rsp)
  402dae:	00 00 
  402db0:	66 c7 04 24 02 00    	movw   $0x2,(%rsp)
  402db6:	48 63 50 14          	movslq 0x14(%rax),%rdx
  402dba:	48 8b 40 18          	mov    0x18(%rax),%rax
  402dbe:	48 8b 30             	mov    (%rax),%rsi
  402dc1:	48 8d 7c 24 04       	lea    0x4(%rsp),%rdi
  402dc6:	b9 0c 00 00 00       	mov    $0xc,%ecx
  402dcb:	e8 b0 df ff ff       	callq  400d80 <__memmove_chk@plt>
  402dd0:	66 c7 44 24 02 3c 9a 	movw   $0x9a3c,0x2(%rsp)
  402dd7:	ba 10 00 00 00       	mov    $0x10,%edx
  402ddc:	48 89 e6             	mov    %rsp,%rsi
  402ddf:	89 df                	mov    %ebx,%edi
  402de1:	e8 7a e0 ff ff       	callq  400e60 <connect@plt>
  402de6:	85 c0                	test   %eax,%eax
  402de8:	79 50                	jns    402e3a <init_driver+0x1c1>
  402dea:	48 b8 45 72 72 6f 72 	movabs $0x55203a726f727245,%rax
  402df1:	3a 20 55 
  402df4:	48 89 45 00          	mov    %rax,0x0(%rbp)
  402df8:	48 b8 6e 61 62 6c 65 	movabs $0x6f7420656c62616e,%rax
  402dff:	20 74 6f 
  402e02:	48 89 45 08          	mov    %rax,0x8(%rbp)
  402e06:	48 b8 20 63 6f 6e 6e 	movabs $0x7463656e6e6f6320,%rax
  402e0d:	65 63 74 
  402e10:	48 89 45 10          	mov    %rax,0x10(%rbp)
  402e14:	48 b8 20 74 6f 20 73 	movabs $0x76726573206f7420,%rax
  402e1b:	65 72 76 
  402e1e:	48 89 45 18          	mov    %rax,0x18(%rbp)
  402e22:	66 c7 45 20 65 72    	movw   $0x7265,0x20(%rbp)
  402e28:	c6 45 22 00          	movb   $0x0,0x22(%rbp)
  402e2c:	89 df                	mov    %ebx,%edi
  402e2e:	e8 fd de ff ff       	callq  400d30 <close@plt>
  402e33:	b8 ff ff ff ff       	mov    $0xffffffff,%eax
  402e38:	eb 16                	jmp    402e50 <init_driver+0x1d7>
  402e3a:	89 df                	mov    %ebx,%edi
  402e3c:	e8 ef de ff ff       	callq  400d30 <close@plt>
  402e41:	66 c7 45 00 4f 4b    	movw   $0x4b4f,0x0(%rbp)
  402e47:	c6 45 02 00          	movb   $0x0,0x2(%rbp)
  402e4b:	b8 00 00 00 00       	mov    $0x0,%eax
  402e50:	48 8b 4c 24 18       	mov    0x18(%rsp),%rcx
  402e55:	64 48 33 0c 25 28 00 	xor    %fs:0x28,%rcx
  402e5c:	00 00 
  402e5e:	74 05                	je     402e65 <init_driver+0x1ec>
  402e60:	e8 8b de ff ff       	callq  400cf0 <__stack_chk_fail@plt>
  402e65:	48 83 c4 28          	add    $0x28,%rsp
  402e69:	5b                   	pop    %rbx
  402e6a:	5d                   	pop    %rbp
  402e6b:	c3                   	retq   

0000000000402e6c <driver_post>:
  402e6c:	53                   	push   %rbx
  402e6d:	4c 89 cb             	mov    %r9,%rbx
  402e70:	45 85 c0             	test   %r8d,%r8d
  402e73:	74 27                	je     402e9c <driver_post+0x30>
  402e75:	48 89 ca             	mov    %rcx,%rdx
  402e78:	be 99 37 40 00       	mov    $0x403799,%esi
  402e7d:	bf 01 00 00 00       	mov    $0x1,%edi
  402e82:	b8 00 00 00 00       	mov    $0x0,%eax
  402e87:	e8 74 df ff ff       	callq  400e00 <__printf_chk@plt>
  402e8c:	66 c7 03 4f 4b       	movw   $0x4b4f,(%rbx)
  402e91:	c6 43 02 00          	movb   $0x0,0x2(%rbx)
  402e95:	b8 00 00 00 00       	mov    $0x0,%eax
  402e9a:	eb 3f                	jmp    402edb <driver_post+0x6f>
  402e9c:	48 85 ff             	test   %rdi,%rdi
  402e9f:	74 2c                	je     402ecd <driver_post+0x61>
  402ea1:	80 3f 00             	cmpb   $0x0,(%rdi)
  402ea4:	74 27                	je     402ecd <driver_post+0x61>
  402ea6:	48 83 ec 08          	sub    $0x8,%rsp
  402eaa:	41 51                	push   %r9
  402eac:	49 89 c9             	mov    %rcx,%r9
  402eaf:	49 89 d0             	mov    %rdx,%r8
  402eb2:	48 89 f9             	mov    %rdi,%rcx
  402eb5:	48 89 f2             	mov    %rsi,%rdx
  402eb8:	be 9a 3c 00 00       	mov    $0x3c9a,%esi
  402ebd:	bf 85 37 40 00       	mov    $0x403785,%edi
  402ec2:	e8 19 f6 ff ff       	callq  4024e0 <submitr>
  402ec7:	48 83 c4 10          	add    $0x10,%rsp
  402ecb:	eb 0e                	jmp    402edb <driver_post+0x6f>
  402ecd:	66 c7 03 4f 4b       	movw   $0x4b4f,(%rbx)
  402ed2:	c6 43 02 00          	movb   $0x0,0x2(%rbx)
  402ed6:	b8 00 00 00 00       	mov    $0x0,%eax
  402edb:	5b                   	pop    %rbx
  402edc:	c3                   	retq   

0000000000402edd <check>:
  402edd:	89 f8                	mov    %edi,%eax
  402edf:	c1 e8 1c             	shr    $0x1c,%eax
  402ee2:	85 c0                	test   %eax,%eax
  402ee4:	74 1d                	je     402f03 <check+0x26>
  402ee6:	b9 00 00 00 00       	mov    $0x0,%ecx
  402eeb:	eb 0b                	jmp    402ef8 <check+0x1b>
  402eed:	89 f8                	mov    %edi,%eax
  402eef:	d3 e8                	shr    %cl,%eax
  402ef1:	3c 0a                	cmp    $0xa,%al
  402ef3:	74 14                	je     402f09 <check+0x2c>
  402ef5:	83 c1 08             	add    $0x8,%ecx
  402ef8:	83 f9 1f             	cmp    $0x1f,%ecx
  402efb:	7e f0                	jle    402eed <check+0x10>
  402efd:	b8 01 00 00 00       	mov    $0x1,%eax
  402f02:	c3                   	retq   
  402f03:	b8 00 00 00 00       	mov    $0x0,%eax
  402f08:	c3                   	retq   
  402f09:	b8 00 00 00 00       	mov    $0x0,%eax
  402f0e:	c3                   	retq   

0000000000402f0f <gencookie>:
  402f0f:	53                   	push   %rbx
  402f10:	83 c7 01             	add    $0x1,%edi
  402f13:	e8 88 dd ff ff       	callq  400ca0 <srandom@plt>
  402f18:	e8 a3 de ff ff       	callq  400dc0 <random@plt>
  402f1d:	89 c3                	mov    %eax,%ebx
  402f1f:	89 c7                	mov    %eax,%edi
  402f21:	e8 b7 ff ff ff       	callq  402edd <check>
  402f26:	85 c0                	test   %eax,%eax
  402f28:	74 ee                	je     402f18 <gencookie+0x9>
  402f2a:	89 d8                	mov    %ebx,%eax
  402f2c:	5b                   	pop    %rbx
  402f2d:	c3                   	retq   
  402f2e:	66 90                	xchg   %ax,%ax

0000000000402f30 <__libc_csu_init>:
  402f30:	41 57                	push   %r15
  402f32:	41 56                	push   %r14
  402f34:	41 89 ff             	mov    %edi,%r15d
  402f37:	41 55                	push   %r13
  402f39:	41 54                	push   %r12
  402f3b:	4c 8d 25 ce 1e 20 00 	lea    0x201ece(%rip),%r12        # 604e10 <__frame_dummy_init_array_entry>
  402f42:	55                   	push   %rbp
  402f43:	48 8d 2d ce 1e 20 00 	lea    0x201ece(%rip),%rbp        # 604e18 <__init_array_end>
  402f4a:	53                   	push   %rbx
  402f4b:	49 89 f6             	mov    %rsi,%r14
  402f4e:	49 89 d5             	mov    %rdx,%r13
  402f51:	4c 29 e5             	sub    %r12,%rbp
  402f54:	48 83 ec 08          	sub    $0x8,%rsp
  402f58:	48 c1 fd 03          	sar    $0x3,%rbp
  402f5c:	e8 e7 dc ff ff       	callq  400c48 <_init>
  402f61:	48 85 ed             	test   %rbp,%rbp
  402f64:	74 20                	je     402f86 <__libc_csu_init+0x56>
  402f66:	31 db                	xor    %ebx,%ebx
  402f68:	0f 1f 84 00 00 00 00 	nopl   0x0(%rax,%rax,1)
  402f6f:	00 
  402f70:	4c 89 ea             	mov    %r13,%rdx
  402f73:	4c 89 f6             	mov    %r14,%rsi
  402f76:	44 89 ff             	mov    %r15d,%edi
  402f79:	41 ff 14 dc          	callq  *(%r12,%rbx,8)
  402f7d:	48 83 c3 01          	add    $0x1,%rbx
  402f81:	48 39 eb             	cmp    %rbp,%rbx
  402f84:	75 ea                	jne    402f70 <__libc_csu_init+0x40>
  402f86:	48 83 c4 08          	add    $0x8,%rsp
  402f8a:	5b                   	pop    %rbx
  402f8b:	5d                   	pop    %rbp
  402f8c:	41 5c                	pop    %r12
  402f8e:	41 5d                	pop    %r13
  402f90:	41 5e                	pop    %r14
  402f92:	41 5f                	pop    %r15
  402f94:	c3                   	retq   
  402f95:	90                   	nop
  402f96:	66 2e 0f 1f 84 00 00 	nopw   %cs:0x0(%rax,%rax,1)
  402f9d:	00 00 00 

0000000000402fa0 <__libc_csu_fini>:
  402fa0:	f3 c3                	repz retq 

Disassembly of section .fini:

0000000000402fa4 <_fini>:
  402fa4:	48 83 ec 08          	sub    $0x8,%rsp
  402fa8:	48 83 c4 08          	add    $0x8,%rsp
  402fac:	c3                   	retq   
